
HDMI_DEMO.elf:     file format elf32-littlenios2
HDMI_DEMO.elf
architecture: nios2, flags 0x00000112:
EXEC_P, HAS_SYMS, D_PAGED
start address 0x000801e8

Program Header:
    LOAD off    0x00001000 vaddr 0x00080000 paddr 0x00080000 align 2**12
         filesz 0x00000020 memsz 0x00000020 flags r-x
    LOAD off    0x00001020 vaddr 0x00080020 paddr 0x00080020 align 2**12
         filesz 0x0001e884 memsz 0x0001e884 flags r-x
    LOAD off    0x0001f8a4 vaddr 0x0009e8a4 paddr 0x000a0720 align 2**12
         filesz 0x00001e7c memsz 0x00001e7c flags rw-
    LOAD off    0x0002259c vaddr 0x000a259c paddr 0x000a259c align 2**12
         filesz 0x00000000 memsz 0x000003f0 flags rw-

Sections:
Idx Name          Size      VMA       LMA       File off  Algn
  0 .entry        00000020  00080000  00080000  00001000  2**5
                  CONTENTS, ALLOC, LOAD, READONLY, CODE
  1 .exceptions   000001c8  00080020  00080020  00001020  2**2
                  CONTENTS, ALLOC, LOAD, READONLY, CODE
  2 .text         0001a6d8  000801e8  000801e8  000011e8  2**2
                  CONTENTS, ALLOC, LOAD, READONLY, CODE
  3 .rodata       00003fe4  0009a8c0  0009a8c0  0001b8c0  2**2
                  CONTENTS, ALLOC, LOAD, READONLY, DATA
  4 .rwdata       00001e7c  0009e8a4  000a0720  0001f8a4  2**2
                  CONTENTS, ALLOC, LOAD, DATA, SMALL_DATA
  5 .bss          000003f0  000a259c  000a259c  0002259c  2**2
                  ALLOC, SMALL_DATA
  6 .comment      00000023  00000000  00000000  00021720  2**0
                  CONTENTS, READONLY
  7 .debug_aranges 00000f18  00000000  00000000  00021748  2**3
                  CONTENTS, READONLY, DEBUGGING
  8 .debug_pubnames 000018c0  00000000  00000000  00022660  2**0
                  CONTENTS, READONLY, DEBUGGING
  9 .debug_info   0002e77d  00000000  00000000  00023f20  2**0
                  CONTENTS, READONLY, DEBUGGING
 10 .debug_abbrev 0000999b  00000000  00000000  0005269d  2**0
                  CONTENTS, READONLY, DEBUGGING
 11 .debug_line   0001aab9  00000000  00000000  0005c038  2**0
                  CONTENTS, READONLY, DEBUGGING
 12 .debug_frame  00002140  00000000  00000000  00076af4  2**2
                  CONTENTS, READONLY, DEBUGGING
 13 .debug_str    00002878  00000000  00000000  00078c34  2**0
                  CONTENTS, READONLY, DEBUGGING
 14 .debug_loc    0000d76c  00000000  00000000  0007b4ac  2**0
                  CONTENTS, READONLY, DEBUGGING
 15 .debug_alt_sim_info 00000060  00000000  00000000  00088c18  2**2
                  CONTENTS, READONLY, DEBUGGING
 16 .debug_ranges 00000ad8  00000000  00000000  00088c78  2**3
                  CONTENTS, READONLY, DEBUGGING
 17 .thread_model 00000003  00000000  00000000  0008d2cb  2**0
                  CONTENTS, READONLY
 18 .cpu          0000000a  00000000  00000000  0008d2ce  2**0
                  CONTENTS, READONLY
 19 .qsys         00000001  00000000  00000000  0008d2d8  2**0
                  CONTENTS, READONLY
 20 .simulation_enabled 00000001  00000000  00000000  0008d2d9  2**0
                  CONTENTS, READONLY
 21 .sysid_hash   00000004  00000000  00000000  0008d2da  2**0
                  CONTENTS, READONLY
 22 .sysid_base   00000004  00000000  00000000  0008d2de  2**0
                  CONTENTS, READONLY
 23 .sysid_time   00000004  00000000  00000000  0008d2e2  2**0
                  CONTENTS, READONLY
 24 .stderr_dev   00000009  00000000  00000000  0008d2e6  2**0
                  CONTENTS, READONLY
 25 .stdin_dev    00000009  00000000  00000000  0008d2ef  2**0
                  CONTENTS, READONLY
 26 .stdout_dev   00000009  00000000  00000000  0008d2f8  2**0
                  CONTENTS, READONLY
 27 .sopc_system_name 00000009  00000000  00000000  0008d301  2**0
                  CONTENTS, READONLY
 28 .quartus_project_dir 00000055  00000000  00000000  0008d30a  2**0
                  CONTENTS, READONLY
 29 .jdi          00004d6d  00000000  00000000  0008d35f  2**0
                  CONTENTS, READONLY
 30 .sopcinfo     000606c6  00000000  00000000  000920cc  2**0
                  CONTENTS, READONLY
SYMBOL TABLE:
00080000 l    d  .entry	00000000 .entry
00080020 l    d  .exceptions	00000000 .exceptions
000801e8 l    d  .text	00000000 .text
0009a8c0 l    d  .rodata	00000000 .rodata
0009e8a4 l    d  .rwdata	00000000 .rwdata
000a259c l    d  .bss	00000000 .bss
00000000 l    d  .comment	00000000 .comment
00000000 l    d  .debug_aranges	00000000 .debug_aranges
00000000 l    d  .debug_pubnames	00000000 .debug_pubnames
00000000 l    d  .debug_info	00000000 .debug_info
00000000 l    d  .debug_abbrev	00000000 .debug_abbrev
00000000 l    d  .debug_line	00000000 .debug_line
00000000 l    d  .debug_frame	00000000 .debug_frame
00000000 l    d  .debug_str	00000000 .debug_str
00000000 l    d  .debug_loc	00000000 .debug_loc
00000000 l    d  .debug_alt_sim_info	00000000 .debug_alt_sim_info
00000000 l    d  .debug_ranges	00000000 .debug_ranges
00080238 l       .text	00000000 alt_after_alt_main
00000000 l    df *ABS*	00000000 alt_irq_handler.c
00000000 l    df *ABS*	00000000 adv7513.c
0009e8a4 l     O .rwdata	000000f0 vic_table.3765
00080a0c l     F .text	0000008c adv7513_config_csc
00080a98 l     F .text	000000f8 adv7513_video_in_format
00080b90 l     F .text	00000150 adv7513_video_out_format
00080ce0 l     F .text	00000490 adv7513_avi_infoframe
00081170 l     F .text	00000198 adv7513_video_in_format_3d
00081308 l     F .text	00000534 adv7513_avi_infoframe_3d
0008183c l     F .text	00000054 adv7513_vendor_infoframe_3d
00081890 l     F .text	00000164 adv7513_video_out_format_3d
000819f4 l     F .text	000000dc adv7513_video_init
00081ad0 l     F .text	000000b4 adv7513_video_init_3d
00000000 l    df *ABS*	00000000 edid.c
0009e994 l     O .rwdata	000000f0 vic_table.4657
0009ea84 l     O .rwdata	00000040 sad_format.4642
000a06d8 l     O .rwdata	00000008 header.5200
00089574 l     F .text	000000b4 eb_establish_timing
00089404 l     F .text	000000b8 eb_establish_timing_i
000894bc l     F .text	000000b8 eb_establish_timing_rb
00000000 l    df *ABS*	00000000 encoder.c
00000000 l    df *ABS*	00000000 i2c.c
00000000 l    df *ABS*	00000000 main.c
0008be30 l     F .text	000002e4 bin_dump
0008c114 l     F .text	00000378 adv7513_int_handler
0008c48c l     F .text	00000064 adv7513_long_to_int_mask
0008c770 l     F .text	00000050 adv7513_int_mask_to_long
0008c7c0 l     F .text	000000b0 cmd_help
00000000 l    df *ABS*	00000000 fp-bit.c
0008cfc0 l     F .text	000001e4 _fpadd_parts
00000000 l    df *ABS*	00000000 fp-bit.c
00000000 l    df *ABS*	00000000 fp-bit.c
00000000 l    df *ABS*	00000000 fp-bit.c
00000000 l    df *ABS*	00000000 fp-bit.c
00000000 l    df *ABS*	00000000 fp-bit.c
00000000 l    df *ABS*	00000000 dp-bit.c
00000000 l    df *ABS*	00000000 lib2-divmod.c
0008d718 l     F .text	0000007c udivmodsi4
00000000 l    df *ABS*	00000000 libgcc2.c
00000000 l    df *ABS*	00000000 libgcc2.c
00000000 l    df *ABS*	00000000 fp-bit.c
00000000 l    df *ABS*	00000000 fp-bit.c
00000000 l    df *ABS*	00000000 dp-bit.c
00000000 l    df *ABS*	00000000 libgcc2.c
00000000 l    df *ABS*	00000000 fgets.c
00000000 l    df *ABS*	00000000 findfp.c
0008e024 l     F .text	00000058 std
0008e130 l     F .text	00000008 __fp_lock
0008e138 l     F .text	00000008 __fp_unlock
00000000 l    df *ABS*	00000000 fwalk.c
00000000 l    df *ABS*	00000000 impure.c
0009eb38 l     O .rwdata	00000400 impure_data
00000000 l    df *ABS*	00000000 mallocr.c
00000000 l    df *ABS*	00000000 memchr.c
00000000 l    df *ABS*	00000000 memcmp.c
00000000 l    df *ABS*	00000000 memcpy.c
00000000 l    df *ABS*	00000000 memset.c
00000000 l    df *ABS*	00000000 printf.c
00000000 l    df *ABS*	00000000 putchar.c
00000000 l    df *ABS*	00000000 puts.c
00000000 l    df *ABS*	00000000 refill.c
0008f148 l     F .text	0000001c lflush
00000000 l    df *ABS*	00000000 sbrkr.c
00000000 l    df *ABS*	00000000 stdio.c
00000000 l    df *ABS*	00000000 strlen.c
00000000 l    df *ABS*	00000000 strncpy.c
00000000 l    df *ABS*	00000000 strtoul.c
00000000 l    df *ABS*	00000000 vfprintf.c
0008f6a4 l     F .text	00000058 __sprint_r
0009e45c l     O .rodata	00000010 blanks.3452
0009e44c l     O .rodata	00000010 zeroes.3453
00000000 l    df *ABS*	00000000 writer.c
00000000 l    df *ABS*	00000000 wsetup.c
00000000 l    df *ABS*	00000000 closer.c
00000000 l    df *ABS*	00000000 ctype_.c
0009e570 l     O .rodata	00000180 _ctype_b
00000000 l    df *ABS*	00000000 dtoa.c
000917f0 l     F .text	00000218 quorem
00000000 l    df *ABS*	00000000 fclose.c
00000000 l    df *ABS*	00000000 fflush.c
00000000 l    df *ABS*	00000000 mallocr.c
00000000 l    df *ABS*	00000000 fvwrite.c
00000000 l    df *ABS*	00000000 int_errno.c
00000000 l    df *ABS*	00000000 locale.c
000a06f8 l     O .rwdata	00000004 charset
0009e710 l     O .rodata	00000030 lconv
00000000 l    df *ABS*	00000000 lseekr.c
00000000 l    df *ABS*	00000000 makebuf.c
00000000 l    df *ABS*	00000000 memmove.c
00000000 l    df *ABS*	00000000 mprec.c
0009e858 l     O .rodata	0000000c p05.2458
00000000 l    df *ABS*	00000000 putc.c
00000000 l    df *ABS*	00000000 readr.c
00000000 l    df *ABS*	00000000 mallocr.c
00000000 l    df *ABS*	00000000 s_isinfd.c
00000000 l    df *ABS*	00000000 s_isnand.c
00000000 l    df *ABS*	00000000 strcmp.c
00000000 l    df *ABS*	00000000 wbuf.c
00000000 l    df *ABS*	00000000 mallocr.c
00000000 l    df *ABS*	00000000 fstatr.c
00000000 l    df *ABS*	00000000 isattyr.c
00000000 l    df *ABS*	00000000 libgcc2.c
00000000 l    df *ABS*	00000000 libgcc2.c
00000000 l    df *ABS*	00000000 dp-bit.c
00096784 l     F .text	00000410 _fpadd_parts
00000000 l    df *ABS*	00000000 dp-bit.c
00000000 l    df *ABS*	00000000 dp-bit.c
00000000 l    df *ABS*	00000000 dp-bit.c
00000000 l    df *ABS*	00000000 dp-bit.c
00000000 l    df *ABS*	00000000 dp-bit.c
00000000 l    df *ABS*	00000000 dp-bit.c
00000000 l    df *ABS*	00000000 dp-bit.c
00000000 l    df *ABS*	00000000 dp-bit.c
00000000 l    df *ABS*	00000000 dp-bit.c
00000000 l    df *ABS*	00000000 dp-bit.c
00000000 l    df *ABS*	00000000 dp-bit.c
00000000 l    df *ABS*	00000000 dp-bit.c
00000000 l    df *ABS*	00000000 dp-bit.c
00000000 l    df *ABS*	00000000 alt_close.c
00097bb4 l     F .text	00000068 alt_get_errno
00000000 l    df *ABS*	00000000 alt_dev.c
00097c1c l     F .text	00000034 alt_dev_null_write
00000000 l    df *ABS*	00000000 alt_errno.c
00000000 l    df *ABS*	00000000 alt_fstat.c
00097d2c l     F .text	00000068 alt_get_errno
00000000 l    df *ABS*	00000000 alt_iic.c
00000000 l    df *ABS*	00000000 alt_iic_isr_register.c
00000000 l    df *ABS*	00000000 alt_irq_vars.c
00000000 l    df *ABS*	00000000 alt_isatty.c
00098150 l     F .text	00000068 alt_get_errno
00000000 l    df *ABS*	00000000 alt_load.c
00098240 l     F .text	00000074 alt_load_section
00000000 l    df *ABS*	00000000 alt_lseek.c
000983ac l     F .text	00000068 alt_get_errno
00000000 l    df *ABS*	00000000 alt_main.c
00000000 l    df *ABS*	00000000 alt_malloc_lock.c
00000000 l    df *ABS*	00000000 alt_read.c
00098600 l     F .text	00000068 alt_get_errno
00000000 l    df *ABS*	00000000 alt_release_fd.c
00000000 l    df *ABS*	00000000 alt_sbrk.c
000a0714 l     O .rwdata	00000004 heap_end
00000000 l    df *ABS*	00000000 alt_usleep.c
00000000 l    df *ABS*	00000000 alt_write.c
0009896c l     F .text	00000068 alt_get_errno
00000000 l    df *ABS*	00000000 alt_sys_init.c
0009f674 l     O .rwdata	00001060 jtag_uart
00098a74 l     F .text	00000040 alt_dev_reg
00000000 l    df *ABS*	00000000 altera_avalon_jtag_uart_fd.c
00000000 l    df *ABS*	00000000 altera_avalon_jtag_uart_init.c
00098ce4 l     F .text	00000230 altera_avalon_jtag_uart_irq
00098f14 l     F .text	000000b8 altera_avalon_jtag_uart_timeout
00000000 l    df *ABS*	00000000 altera_avalon_jtag_uart_ioctl.c
00000000 l    df *ABS*	00000000 altera_avalon_jtag_uart_read.c
00000000 l    df *ABS*	00000000 altera_avalon_jtag_uart_write.c
00000000 l    df *ABS*	00000000 altera_avalon_timer_sc.c
000995b8 l     F .text	00000078 alt_avalon_timer_sc_irq
00000000 l    df *ABS*	00000000 alt_alarm_start.c
00000000 l    df *ABS*	00000000 alt_busy_sleep.c
00000000 l    df *ABS*	00000000 alt_dcache_flush_all.c
00000000 l    df *ABS*	00000000 alt_dev_llist_insert.c
00099a80 l     F .text	00000068 alt_get_errno
00000000 l    df *ABS*	00000000 alt_do_ctors.c
00000000 l    df *ABS*	00000000 alt_do_dtors.c
00000000 l    df *ABS*	00000000 alt_icache_flush_all.c
00000000 l    df *ABS*	00000000 alt_io_redirect.c
00099bf8 l     F .text	000000cc alt_open_fd
00000000 l    df *ABS*	00000000 alt_open.c
00099d44 l     F .text	000000e4 alt_file_locked
00099fb8 l     F .text	00000068 alt_get_errno
00000000 l    df *ABS*	00000000 alt_tick.c
00000000 l    df *ABS*	00000000 altera_nios2_qsys_irq.c
00000000 l    df *ABS*	00000000 alt_find_dev.c
00000000 l    df *ABS*	00000000 alt_find_file.c
00000000 l    df *ABS*	00000000 alt_get_fd.c
00000000 l    df *ABS*	00000000 alt_icache_flush.c
00000000 l    df *ABS*	00000000 atexit.c
00000000 l    df *ABS*	00000000 exit.c
00000000 l    df *ABS*	00000000 __atexit.c
00000000 l    df *ABS*	00000000 __call_atexit.c
0009a698 l     F .text	00000004 register_fini
00000000 l    df *ABS*	00000000 alt_exit.c
0009a84c l     F .text	00000048 alt_sim_halt
0008eeac g     F .text	0000001c putchar
000943a8 g     F .text	00000094 _mprec_log10
0008b3ec g     F .text	0000010c I2C_Read
00094494 g     F .text	00000088 __any_on
00095b88 g     F .text	00000070 _isatty_r
0009e830 g     O .rodata	00000028 __mprec_tinytens
00098414 g     F .text	00000074 alt_main
0008eed0 g     F .text	000000a0 _puts_r
000a26fc g     O .bss	00000100 alt_irq
00093cb0 g     F .text	00000078 _lseek_r
000a0720 g       *ABS*	00000000 __flash_rwdata_start
000972a4 g     F .text	00000088 __eqdf2
000a298c g       *ABS*	00000000 __alt_heap_start
0008ee34 g     F .text	00000044 printf
00080864 g     F .text	000000dc adv7513_edid_read
0008f1dc g     F .text	00000068 __sseek
0008e08c g     F .text	000000a4 __sinit
00095914 g     F .text	00000130 __swbuf_r
00093c10 g     F .text	00000084 _setlocale_r
0008e18c g     F .text	00000068 __sfmoreglue
000984b0 g     F .text	00000028 __malloc_unlock
0008d458 g     F .text	00000174 __divsf3
00093ebc g     F .text	000000e0 memmove
0008e17c g     F .text	00000010 _cleanup
0009451c g     F .text	000000bc _Balloc
00080378 g     F .text	00000150 adv7513_hpd_probe
000a25c8 g     O .bss	00000004 alt_exception_old_stack_limit
000973b4 g     F .text	00000088 __gtdf2
00000000  w      *UND*	00000000 __errno
0008023c g     F .text	0000013c adv7513_chip_identify
0008b76c g     F .text	0000012c i2c_write
00080000 g     F .entry	0000001c __reset
00080020 g       *ABS*	00000000 __flash_exceptions_start
00095b14 g     F .text	00000074 _fstat_r
000a25a8 g     O .bss	00000004 errno
0008d6e0 g     F .text	00000038 __make_dp
000a25c0 g     O .bss	00000004 alt_argv
000a86d4 g       *ABS*	00000000 _gp
0009880c g     F .text	00000038 usleep
0008d1a4 g     F .text	00000070 __subsf3
0008e000 g     F .text	00000024 fgets
0009f374 g     O .rwdata	00000300 alt_fd_list
0008eec8 g     F .text	00000008 _putchar_r
0009a1fc g     F .text	0000009c alt_find_dev
0008ecfc g     F .text	000000a0 memcpy
00080710 g     F .text	0000007c adv7513_power_state
0008e170 g     F .text	0000000c _cleanup_r
0009754c g     F .text	000000f8 __floatsidf
00099cc4 g     F .text	00000080 alt_io_redirect
000974c4 g     F .text	00000088 __ltdf2
0009a8c0 g       *ABS*	00000000 __DTOR_END__
0008ef70 g     F .text	00000014 puts
000942f8 g     F .text	000000b0 __ratio
00099144 g     F .text	0000022c altera_avalon_jtag_uart_read
00000000  w      *UND*	00000000 malloc
0008ee78 g     F .text	00000034 _printf_r
0008d854 g     F .text	00000008 __udivsi3
00098088 g     F .text	000000c8 isatty
0009e740 g     O .rodata	000000c8 __mprec_tens
00093bec g     F .text	00000008 __locale_charset
0009a480 g     F .text	00000098 alt_icache_flush
0008b4f8 g     F .text	00000164 I2C_MultipleRead
000a259c g     O .bss	00000004 __malloc_top_pad
0008f680 g     F .text	00000024 strtoul
000a06f4 g     O .rwdata	00000004 __mb_cur_max
00093bf4 g     F .text	0000000c _localeconv_r
00094c14 g     F .text	0000003c __i2b
00093750 g     F .text	0000049c __sfvwrite_r
0009eac4 g     O .rwdata	00000074 encoder
0008f164 g     F .text	00000070 _sbrk_r
0009517c g     F .text	00000078 _read_r
0009f340 g     O .rwdata	0000000c __lc_ctype
000a070c g     O .rwdata	00000004 alt_max_fd
000978b0 g     F .text	00000138 __unpack_d
00092fbc g     F .text	00000110 _fclose_r
000932dc g     F .text	00000034 fflush
000a25a0 g     O .bss	00000004 __malloc_max_sbrked_mem
0008bb20 g     F .text	00000160 I2CL_Read
0008d5cc g     F .text	00000054 __extendsfdf2
000806b0 g     F .text	00000060 adv7513_do_hpd_powerdown
00096c14 g     F .text	00000074 __adddf3
000941d8 g     F .text	00000120 __b2d
000961d4 g     F .text	000005b0 __umoddi3
000982b4 g     F .text	000000f8 lseek
000a06e4 g     O .rwdata	00000004 _global_impure_ptr
000951f4 g     F .text	000005f4 _realloc_r
000cbaf0 g       *ABS*	00000000 __alt_exception_stack_pointer
000a298c g       *ABS*	00000000 __bss_end
00097f88 g     F .text	00000100 alt_iic_isr_register
0009a0c0 g     F .text	00000114 alt_tick
000804c8 g     F .text	00000188 adv7513_do_hpd_powerup
00084efc g     F .text	000000f8 edid_decode_extensions
00095bf8 g     F .text	000005dc __udivdi3
0009e808 g     O .rodata	00000028 __mprec_bigtens
00094e70 g     F .text	00000120 __s2b
0009771c g     F .text	00000194 __floatunsidf
000940f8 g     F .text	00000060 __mcmp
000a06f0 g     O .rwdata	00000004 __ctype_ptr
0008e158 g     F .text	00000018 __fp_lock_all
00097f38 g     F .text	00000050 alt_ic_irq_enabled
0008b30c g     F .text	000000e0 I2C_Write
000a25fc g     O .bss	00000100 edid
0009a020 g     F .text	000000a0 alt_alarm_stop
000a25b8 g     O .bss	00000004 alt_irq_active
00080118 g     F .exceptions	000000d0 alt_irq_handler
0009f34c g     O .rwdata	00000028 alt_dev_null
0008dadc g     F .text	000000c8 __unpack_f
0008b65c g     F .text	00000090 i2c_start
00099978 g     F .text	0000004c alt_dcache_flush_all
00093fc4 g     F .text	00000070 __hi0bits
00097644 g     F .text	000000d8 __fixdfsi
000a0720 g       *ABS*	00000000 __ram_rwdata_end
000a0704 g     O .rwdata	00000008 alt_dev_list
00098844 g     F .text	00000128 write
00095094 g     F .text	000000e8 _putc_r
0009e8a4 g       *ABS*	00000000 __ram_rodata_end
00097c50 g     F .text	000000dc fstat
00094d50 g     F .text	00000120 __pow5mult
000a25ac g     O .bss	00000004 __nlocale_changed
0008d85c g     F .text	00000008 __umodsi3
000a298c g       *ABS*	00000000 end
0008d97c g     F .text	00000160 __pack_f
00098c1c g     F .text	000000c8 altera_avalon_jtag_uart_init
0009a8bc g       *ABS*	00000000 __CTOR_LIST__
000caaf0 g       *ABS*	00000000 __alt_stack_pointer
00099630 g     F .text	00000098 alt_avalon_timer_sc_init
0008d8fc g     F .text	00000080 __clzsi2
00099370 g     F .text	00000248 altera_avalon_jtag_uart_write
0008e07c g     F .text	00000004 __sfp_lock_acquire
0008eba4 g     F .text	000000e4 memchr
0008f6fc g     F .text	00001eac ___vfprintf_internal_r
0009343c g     F .text	00000314 _free_r
00080940 g     F .text	000000cc adv7513_regmap_dump
0009a69c g     F .text	000001b0 __call_exitprocs
000a25b0 g     O .bss	00000004 __mlocale_changed
000a06ec g     O .rwdata	00000004 __malloc_sbrk_base
000801e8 g     F .text	00000054 _start
000a25cc g     O .bss	00000004 _alt_tick_rate
000948e0 g     F .text	0000014c __lshift
000a25d0 g     O .bss	00000004 _alt_nticks
000984d8 g     F .text	00000128 read
00098a10 g     F .text	00000064 alt_sys_init
0009a564 g     F .text	00000134 __register_exitproc
00083550 g     F .text	000019ac edid_print_cea
0008ae9c g     F .text	00000094 reg_read
00094a2c g     F .text	000001e8 __multiply
00098fcc g     F .text	0000007c altera_avalon_jtag_uart_close
0009e8a4 g       *ABS*	00000000 __ram_rwdata_start
0009a8c0 g       *ABS*	00000000 __ram_rodata_start
0008f394 g     F .text	000000bc strncpy
000a25d4 g     O .bss	00000028 __malloc_current_mallinfo
000945d8 g     F .text	0000017c __d2b
00098ab4 g     F .text	00000060 altera_avalon_jtag_uart_read_fd
0008f450 g     F .text	00000230 _strtoul_r
0009a3c0 g     F .text	000000c0 alt_get_fd
00099824 g     F .text	00000154 alt_busy_sleep
000979e8 g     F .text	000000c8 __fpcmp_parts_d
00091780 g     F .text	00000070 _close_r
0008ec88 g     F .text	00000074 memcmp
00098b74 g     F .text	00000050 altera_avalon_jtag_uart_close_fd
000a298c g       *ABS*	00000000 __alt_stack_base
00098bc4 g     F .text	00000058 altera_avalon_jtag_uart_ioctl_fd
00091644 g     F .text	0000013c __swsetup_r
0009704c g     F .text	00000258 __divdf3
0008e1f4 g     F .text	000000f0 __sfp
0009443c g     F .text	00000058 __copybits
0009ef38 g     O .rwdata	00000408 __malloc_av_
0008e088 g     F .text	00000004 __sinit_lock_release
0008b6ec g     F .text	00000080 i2c_stop
00096c88 g     F .text	000003c4 __muldf3
0008f2c0 g     F .text	00000060 __sread
0008078c g     F .text	000000d8 adv7513_mode_state
0009e2d4 g     O .rodata	00000010 __thenan_sf
0009a298 g     F .text	00000128 alt_find_file
000999c4 g     F .text	000000bc alt_dev_llist_insert
00098488 g     F .text	00000028 __malloc_lock
000986d0 g     F .text	0000013c sbrk
000930e0 g     F .text	000001fc _fflush_r
00095a60 g     F .text	000000b4 _calloc_r
000a259c g       *ABS*	00000000 __bss_start
0008ed9c g     F .text	00000098 memset
0008c870 g     F .text	00000750 main
000a25c4 g     O .bss	00000004 alt_envp
000a25a4 g     O .bss	00000004 __malloc_max_total_mem
00098b14 g     F .text	00000060 altera_avalon_jtag_uart_write_fd
0008b898 g     F .text	00000154 i2c_read
00095a44 g     F .text	0000001c __swbuf
0008f1d4 g     F .text	00000008 __sclose
000caaf0 g       *ABS*	00000000 __alt_heap_limit
000930cc g     F .text	00000014 fclose
000a27fc g     O .bss	00000190 _atexit0
00091a08 g     F .text	000015b4 _dtoa_r
0008e464 g     F .text	00000740 _malloc_r
000a0710 g     O .rwdata	00000004 alt_errno
0008afc8 g     F .text	00000130 reg_update_bits
0008e3ac g     F .text	000000b8 _fwalk
000a298c g       *ABS*	00000000 __alt_stack_limit
0008deb8 g     F .text	00000148 _fgets_r
00094f90 g     F .text	00000104 putc
000cb2f0 g       *ABS*	00000000 __alt_exception_stack_limit
0008d794 g     F .text	00000060 __divsi3
0009e864 g     O .rodata	00000014 __thenan_df
00093310 g     F .text	0000012c _malloc_trim_r
0009a8c0 g       *ABS*	00000000 __CTOR_END__
0008d278 g     F .text	000001e0 __mulsf3
0008b200 g     F .text	0000010c reg_clear_bits
00095858 g     F .text	000000bc strcmp
0009a8c0 g       *ABS*	00000000 __flash_rodata_start
0009a8c0 g       *ABS*	00000000 __DTOR_LIST__
0009732c g     F .text	00000088 __nedf2
000989d4 g     F .text	0000003c alt_irq_init
00098668 g     F .text	00000068 alt_release_fd
0009e2e4 g     O .rodata	00000100 __clz_tab
000a25b4 g     O .bss	00000004 _PathLocale
0009a518 g     F .text	00000014 atexit
000915cc g     F .text	00000078 _write_r
00093c94 g     F .text	0000001c setlocale
000a06e0 g     O .rwdata	00000004 _impure_ptr
000a25bc g     O .bss	00000004 alt_argc
00099b54 g     F .text	0000006c _do_dtors
00081be0 g     F .text	0000005c adv7513_chip_init_3d
0008bc80 g     F .text	000001b0 I2CL_MultipleRead
0008ef84 g     F .text	000001c4 __srefill_r
00080020 g       .exceptions	00000000 alt_irq_entry
00094158 g     F .text	00000080 __ulp
000957e8 g     F .text	00000040 __isinfd
0008e140 g     F .text	00000018 __fp_unlock_all
000a06fc g     O .rwdata	00000008 alt_fs_list
00080020 g       *ABS*	00000000 __ram_exceptions_start
00093c00 g     F .text	00000010 localeconv
00080000 g       *ABS*	00000000 __alt_mem_onchip_memory2
00097d94 g     F .text	00000058 alt_ic_isr_register
000a06d4 g     O .rwdata	00000004 alt_stack_limit_value
00084ff4 g     F .text	00004410 edid_decode_v14
000a0720 g       *ABS*	00000000 _edata
000a298c g       *ABS*	00000000 _end
0008c4f0 g     F .text	00000280 adv7513_int_setup
000801e8 g       *ABS*	00000000 __ram_exceptions_end
00099048 g     F .text	000000fc altera_avalon_jtag_uart_ioctl
00097e90 g     F .text	000000a8 alt_ic_irq_disable
0008b0f8 g     F .text	00000108 reg_or_bits
0008f244 g     F .text	0000007c __swrite
000a06e8 g     O .rwdata	00000004 __malloc_trim_threshold
0009a1d4 g     F .text	00000028 altera_nios2_qsys_irq_init
0009a52c g     F .text	00000038 exit
0008e2e4 g     F .text	000000c8 _fwalk_reent
0008d620 g     F .text	000000c0 __floatunsisf
00094754 g     F .text	0000018c __mdiff
0008af30 g     F .text	00000098 reg_write
0008d7f4 g     F .text	00000060 __modsi3
000caaf0 g       *ABS*	00000000 __alt_data_end
00080650 g     F .text	00000060 adv7513_kick_up
00080020 g     F .exceptions	00000000 alt_exception
0008e080 g     F .text	00000004 __sfp_lock_release
0009e46c g     O .rodata	00000101 _ctype_
0009a894 g     F .text	00000028 _exit
00095828 g     F .text	00000030 __isnand
000996c8 g     F .text	0000015c alt_alarm_start
0008d864 g     F .text	00000098 __muldi3
00093d28 g     F .text	00000194 __smakebuf_r
0008f320 g     F .text	00000074 strlen
00099e28 g     F .text	00000190 open
0009743c g     F .text	00000088 __gedf2
00081c3c g     F .text	00001914 edid_decode_cea
00081b84 g     F .text	0000005c adv7513_chip_init
00089628 g     F .text	00001874 edid_print_v14
00099bc0 g     F .text	00000038 alt_icache_flush_all
00097dec g     F .text	000000a4 alt_ic_irq_enable
000915a8 g     F .text	00000024 __vfprintf_internal
00096b94 g     F .text	00000080 __subdf3
00094034 g     F .text	000000c4 __lo0bits
000a0718 g     O .rwdata	00000008 alt_alarm_list
00099ae8 g     F .text	0000006c _do_ctors
0008b9ec g     F .text	00000134 I2CL_Write
00097ab0 g     F .text	00000104 close
0008d214 g     F .text	00000064 __addsf3
000981b8 g     F .text	00000088 alt_load
0008dba4 g     F .text	00000314 __pack_d
00000000  w      *UND*	00000000 free
0008e084 g     F .text	00000004 __sinit_lock_acquire
00094c50 g     F .text	00000100 __multadd
00093f9c g     F .text	00000028 _Bfree



Disassembly of section .entry:

00080000 <__reset>:
#if NIOS2_ICACHE_SIZE > 0 && defined(ALT_ALLOW_CODE_AT_RESET) && !defined(ALT_SIM_OPTIMIZE)
    /* Assume the instruction cache size is always a power of two. */
#if NIOS2_ICACHE_SIZE > 0x8000
    movhi r2, %hi(NIOS2_ICACHE_SIZE)
#else
    movui r2, NIOS2_ICACHE_SIZE
   80000:	00840014 	movui	r2,4096
#endif

0:
    initi r2
   80004:	1001483a 	initi	r2
    addi r2, r2, -NIOS2_ICACHE_LINE_SIZE
   80008:	10bff804 	addi	r2,r2,-32
    bgt r2, zero, 0b
   8000c:	00bffd16 	blt	zero,r2,80004 <__reset+0x4>
 * Jump to the _start entry point in the .text section if reset code
 * is allowed or if optimizing for RTL simulation.
 */
#if defined(ALT_ALLOW_CODE_AT_RESET) || defined(ALT_SIM_OPTIMIZE)
    /* Jump to the _start entry point in the .text section. */
    movhi r1, %hi(_start)
   80010:	00400234 	movhi	at,8
    ori r1, r1, %lo(_start)
   80014:	08407a14 	ori	at,at,488
    jmp r1
   80018:	0800683a 	jmp	at
   8001c:	00000000 	call	0 <__alt_mem_onchip_memory2-0x80000>

Disassembly of section .exceptions:

00080020 <alt_exception>:
        .section .exceptions.entry, "xa"

#ifdef ALT_EXCEPTION_STACK

#ifdef ALT_STACK_CHECK
        stw   et, %gprel(alt_exception_old_stack_limit)(gp)
   80020:	d627bd15 	stw	et,-24844(gp)
#endif

        movhi et, %hiadj(__alt_exception_stack_pointer - 80)
   80024:	06000374 	movhi	et,13
        addi  et, et, %lo(__alt_exception_stack_pointer - 80) 
   80028:	c62ea804 	addi	et,et,-17760
        stw   sp, 76(et)
   8002c:	c6c01315 	stw	sp,76(et)
        mov   sp, et
   80030:	c037883a 	mov	sp,et

#ifdef ALT_STACK_CHECK
        movhi et, %hiadj(__alt_exception_stack_limit)
   80034:	06000374 	movhi	et,13
        addi  et, et, %lo(__alt_exception_stack_limit) 
   80038:	c62cbc04 	addi	et,et,-19728
        stw   et, %gprel(alt_stack_limit_value)(gp)
   8003c:	d6200015 	stw	et,-32768(gp)

#endif

#endif

        stw   ra,  0(sp)
   80040:	dfc00015 	stw	ra,0(sp)
        /*
         * Leave a gap in the stack frame at 4(sp) for the muldiv handler to
         * store zero into.
         */

        stw   r1,   8(sp)
   80044:	d8400215 	stw	at,8(sp)
        stw   r2,  12(sp)
   80048:	d8800315 	stw	r2,12(sp)
        stw   r3,  16(sp)
   8004c:	d8c00415 	stw	r3,16(sp)
        stw   r4,  20(sp)
   80050:	d9000515 	stw	r4,20(sp)
        stw   r5,  24(sp)
   80054:	d9400615 	stw	r5,24(sp)
        stw   r6,  28(sp)
   80058:	d9800715 	stw	r6,28(sp)
        stw   r7,  32(sp)
   8005c:	d9c00815 	stw	r7,32(sp)

        rdctl r5, estatus
   80060:	000b307a 	rdctl	r5,estatus

        stw   r8,  36(sp)
   80064:	da000915 	stw	r8,36(sp)
        stw   r9,  40(sp)
   80068:	da400a15 	stw	r9,40(sp)
        stw   r10, 44(sp)
   8006c:	da800b15 	stw	r10,44(sp)
        stw   r11, 48(sp)
   80070:	dac00c15 	stw	r11,48(sp)
        stw   r12, 52(sp)
   80074:	db000d15 	stw	r12,52(sp)
        stw   r13, 56(sp)
   80078:	db400e15 	stw	r13,56(sp)
        stw   r14, 60(sp)
   8007c:	db800f15 	stw	r14,60(sp)
        stw   r15, 64(sp)
   80080:	dbc01015 	stw	r15,64(sp)
        /*
         * ea-4 contains the address of the instruction being executed
         * when the exception occured. For interrupt exceptions, we will
         * will be re-issue the isntruction. Store it in 72(sp)
         */
        stw   r5,  68(sp)  /* estatus */
   80084:	d9401115 	stw	r5,68(sp)
        addi  r15, ea, -4  /* instruction that caused exception */
   80088:	ebffff04 	addi	r15,ea,-4
        stw   r15,  72(sp)
   8008c:	dbc01215 	stw	r15,72(sp)
#else
        /*
         * Test to see if the exception was a software exception or caused 
         * by an external interrupt, and vector accordingly.
         */
        rdctl r4, ipending
   80090:	0009313a 	rdctl	r4,ipending
        andi  r2, r5, 1
   80094:	2880004c 	andi	r2,r5,1
        beq   r2, zero, .Lnot_irq
   80098:	10000326 	beq	r2,zero,800a8 <alt_exception+0x88>
        beq   r4, zero, .Lnot_irq
   8009c:	20000226 	beq	r4,zero,800a8 <alt_exception+0x88>
        /*
         * Now that all necessary registers have been preserved, call 
         * alt_irq_handler() to process the interrupts.
         */

        call alt_irq_handler
   800a0:	00801180 	call	80118 <alt_irq_handler>

        .section .exceptions.irqreturn, "xa"

        br    .Lexception_exit
   800a4:	00000306 	br	800b4 <alt_exception+0x94>
         * upon completion, so we write ea (address of instruction *after*
         * the one where the exception occured) into 72(sp). The actual
         * instruction that caused the exception is written in r2, which these
         * handlers will utilize.
         */
        stw   ea,  72(sp)  /* Don't re-issue */
   800a8:	df401215 	stw	ea,72(sp)
        ldw   r2, -4(ea)   /* Instruction that caused exception */
   800ac:	e8bfff17 	ldw	r2,-4(ea)
#ifdef NIOS2_HAS_DEBUG_STUB
       /*
        *  Either tell the user now (if there is a debugger attached) or go into
        *  the debug monitor which will loop until a debugger is attached.
        */
        break
   800b0:	003da03a 	break	0
        /* 
         * Restore the saved registers, so that all general purpose registers 
         * have been restored to their state at the time the interrupt occured.
         */

        ldw   r5,  68(sp)
   800b4:	d9401117 	ldw	r5,68(sp)
        ldw   ea,  72(sp)  /* This becomes the PC once eret is executed */
   800b8:	df401217 	ldw	ea,72(sp)
        ldw   ra,   0(sp)
   800bc:	dfc00017 	ldw	ra,0(sp)

        wrctl estatus, r5
   800c0:	2801707a 	wrctl	estatus,r5

        ldw   r1,   8(sp)
   800c4:	d8400217 	ldw	at,8(sp)
        ldw   r2,  12(sp)
   800c8:	d8800317 	ldw	r2,12(sp)
        ldw   r3,  16(sp)
   800cc:	d8c00417 	ldw	r3,16(sp)
        ldw   r4,  20(sp)
   800d0:	d9000517 	ldw	r4,20(sp)
        ldw   r5,  24(sp)
   800d4:	d9400617 	ldw	r5,24(sp)
        ldw   r6,  28(sp)
   800d8:	d9800717 	ldw	r6,28(sp)
        ldw   r7,  32(sp)
   800dc:	d9c00817 	ldw	r7,32(sp)

#ifdef ALT_EXCEPTION_STACK
#ifdef ALT_STACK_CHECK
        ldw   et, %gprel(alt_exception_old_stack_limit)(gp)
   800e0:	d627bd17 	ldw	et,-24844(gp)
#endif
#endif

        ldw   r8,  36(sp)
   800e4:	da000917 	ldw	r8,36(sp)
        ldw   r9,  40(sp)
   800e8:	da400a17 	ldw	r9,40(sp)
        ldw   r10, 44(sp)
   800ec:	da800b17 	ldw	r10,44(sp)
        ldw   r11, 48(sp)
   800f0:	dac00c17 	ldw	r11,48(sp)
        ldw   r12, 52(sp)
   800f4:	db000d17 	ldw	r12,52(sp)
        ldw   r13, 56(sp)
   800f8:	db400e17 	ldw	r13,56(sp)
        ldw   r14, 60(sp)
   800fc:	db800f17 	ldw	r14,60(sp)
        ldw   r15, 64(sp)
   80100:	dbc01017 	ldw	r15,64(sp)

#ifdef ALT_EXCEPTION_STACK

#ifdef ALT_STACK_CHECK
        stw   et, %gprel(alt_stack_limit_value)(gp)
   80104:	d6200015 	stw	et,-32768(gp)
        stw   zero, %gprel(alt_exception_old_stack_limit)(gp)
   80108:	d027bd15 	stw	zero,-24844(gp)
#endif

        ldw   sp,  76(sp)
   8010c:	dec01317 	ldw	sp,76(sp)

        /*
         * Return to the interrupted instruction.
         */

        eret
   80110:	ef80083a 	eret

#ifdef ALT_STACK_CHECK

.Lstack_overflow:
        break 3
   80114:	003da0fa 	break	3

00080118 <alt_irq_handler>:
 * instruction is present if the macro ALT_CI_INTERRUPT_VECTOR defined.
 */

void alt_irq_handler (void) __attribute__ ((section (".exceptions")));
void alt_irq_handler (void)
{
   80118:	defff904 	addi	sp,sp,-28
   8011c:	de00012e 	bgeu	sp,et,80124 <alt_irq_handler+0xc>
   80120:	003da0fa 	break	3
   80124:	dfc00615 	stw	ra,24(sp)
   80128:	df000515 	stw	fp,20(sp)
   8012c:	df000504 	addi	fp,sp,20
#ifndef NIOS2_EIC_PRESENT
static ALT_INLINE alt_u32 ALT_ALWAYS_INLINE alt_irq_pending (void)
{
  alt_u32 active;

  NIOS2_READ_IPENDING (active);
   80130:	0005313a 	rdctl	r2,ipending
   80134:	e0bffc15 	stw	r2,-16(fp)

  return active;
   80138:	e0bffc17 	ldw	r2,-16(fp)
   * Consider the case where the high priority interupt is asserted during
   * the interrupt entry sequence for a lower priority interrupt to see why
   * this is the case.
   */

  active = alt_irq_pending ();
   8013c:	e0bfff15 	stw	r2,-4(fp)

  do
  {
    i = 0;
   80140:	e03ffd15 	stw	zero,-12(fp)
    mask = 1;
   80144:	00800044 	movi	r2,1
   80148:	e0bffe15 	stw	r2,-8(fp)
     * called to clear the interrupt condition.
     */

    do
    {
      if (active & mask)
   8014c:	e0ffff17 	ldw	r3,-4(fp)
   80150:	e0bffe17 	ldw	r2,-8(fp)
   80154:	1884703a 	and	r2,r3,r2
   80158:	1005003a 	cmpeq	r2,r2,zero
   8015c:	1000161e 	bne	r2,zero,801b8 <alt_irq_handler+0xa0>
      { 
#ifdef ALT_ENHANCED_INTERRUPT_API_PRESENT
        alt_irq[i].handler(alt_irq[i].context); 
   80160:	e0bffd17 	ldw	r2,-12(fp)
   80164:	00c002b4 	movhi	r3,10
   80168:	18c9bf04 	addi	r3,r3,9980
   8016c:	100490fa 	slli	r2,r2,3
   80170:	10c5883a 	add	r2,r2,r3
   80174:	11400017 	ldw	r5,0(r2)
   80178:	e0bffd17 	ldw	r2,-12(fp)
   8017c:	00c002b4 	movhi	r3,10
   80180:	18c9bf04 	addi	r3,r3,9980
   80184:	100490fa 	slli	r2,r2,3
   80188:	10c5883a 	add	r2,r2,r3
   8018c:	10800104 	addi	r2,r2,4
   80190:	11000017 	ldw	r4,0(r2)
   80194:	283ee83a 	callr	r5
#ifndef NIOS2_EIC_PRESENT
static ALT_INLINE alt_u32 ALT_ALWAYS_INLINE alt_irq_pending (void)
{
  alt_u32 active;

  NIOS2_READ_IPENDING (active);
   80198:	0005313a 	rdctl	r2,ipending
   8019c:	e0bffb15 	stw	r2,-20(fp)

  return active;
   801a0:	e0bffb17 	ldw	r2,-20(fp)
      mask <<= 1;
      i++;

    } while (1);

    active = alt_irq_pending ();
   801a4:	e0bfff15 	stw	r2,-4(fp)
    
  } while (active);
   801a8:	e0bfff17 	ldw	r2,-4(fp)
   801ac:	1004c03a 	cmpne	r2,r2,zero
   801b0:	103fe31e 	bne	r2,zero,80140 <alt_irq_handler+0x28>
   801b4:	00000706 	br	801d4 <alt_irq_handler+0xbc>
#else
        alt_irq[i].handler(alt_irq[i].context, i); 
#endif
        break;
      }
      mask <<= 1;
   801b8:	e0bffe17 	ldw	r2,-8(fp)
   801bc:	1085883a 	add	r2,r2,r2
   801c0:	e0bffe15 	stw	r2,-8(fp)
      i++;
   801c4:	e0bffd17 	ldw	r2,-12(fp)
   801c8:	10800044 	addi	r2,r2,1
   801cc:	e0bffd15 	stw	r2,-12(fp)

    } while (1);
   801d0:	003fde06 	br	8014c <alt_irq_handler+0x34>
  /*
   * Notify the operating system that interrupt processing is complete.
   */ 

  ALT_OS_INT_EXIT();
}
   801d4:	e037883a 	mov	sp,fp
   801d8:	dfc00117 	ldw	ra,4(sp)
   801dc:	df000017 	ldw	fp,0(sp)
   801e0:	dec00204 	addi	sp,sp,8
   801e4:	f800283a 	ret

Disassembly of section .text:

000801e8 <_start>:

    /* Assume the data cache size is always a power of two. */
#if NIOS2_DCACHE_SIZE > 0x8000
    movhi r2, %hi(NIOS2_DCACHE_SIZE)
#else
    movui r2, NIOS2_DCACHE_SIZE
   801e8:	00820014 	movui	r2,2048
#endif

0:
    initd 0(r2)
   801ec:	10000033 	initd	0(r2)
    addi r2, r2, -NIOS2_DCACHE_LINE_SIZE
   801f0:	10bff804 	addi	r2,r2,-32
    bgt r2, zero, 0b
   801f4:	00bffd16 	blt	zero,r2,801ec <_start+0x4>
#if (NIOS2_NUM_OF_SHADOW_REG_SETS == 0)    
    /*
     * Now that the caches are initialized, set up the stack pointer.
     * The value provided by the linker is assumed to be correctly aligned.
     */
    movhi sp, %hi(__alt_stack_pointer)
   801f8:	06c00334 	movhi	sp,12
    ori sp, sp, %lo(__alt_stack_pointer)
   801fc:	deeabc14 	ori	sp,sp,43760

    /* Set up the global pointer. */
    movhi gp, %hi(_gp)
   80200:	068002b4 	movhi	gp,10
    ori gp, gp, %lo(_gp)
   80204:	d6a1b514 	ori	gp,gp,34516
 */
#ifndef ALT_SIM_OPTIMIZE
    /* Log that the BSS is about to be cleared. */
    ALT_LOG_PUTS(alt_log_msg_bss)

    movhi r2, %hi(__bss_start)
   80208:	008002b4 	movhi	r2,10
    ori r2, r2, %lo(__bss_start)
   8020c:	10896714 	ori	r2,r2,9628

    movhi r3, %hi(__bss_end)
   80210:	00c002b4 	movhi	r3,10
    ori r3, r3, %lo(__bss_end)
   80214:	18ca6314 	ori	r3,r3,10636

    beq r2, r3, 1f
   80218:	10c00326 	beq	r2,r3,80228 <_start+0x40>

0:
    stw zero, (r2)
   8021c:	10000015 	stw	zero,0(r2)
    addi r2, r2, 4
   80220:	10800104 	addi	r2,r2,4
    bltu r2, r3, 0b
   80224:	10fffd36 	bltu	r2,r3,8021c <_start+0x34>
     * If the user has selected stack checking then we need to set up a safe
     * value in the stack limit register so that the relocation functions
     * don't think the stack has overflowed (the contents of the rwdata
     * section aren't defined until alt_load() has been called).
     */
    mov   et, zero
   80228:	0031883a 	mov	et,zero
#endif

    call alt_load
   8022c:	00981b80 	call	981b8 <alt_load>
    /*
     * Set up the stack limit (if required).  The linker has set up the
     * copy of the variable which is in memory.
     */

    ldw   et, %gprel(alt_stack_limit_value)(gp)
   80230:	d6200017 	ldw	et,-32768(gp)

    /* Log that alt_main is about to be called. */
    ALT_LOG_PUTS(alt_log_msg_alt_main)

    /* Call the C entry point. It should never return. */
    call alt_main
   80234:	00984140 	call	98414 <alt_main>

00080238 <alt_after_alt_main>:

    /* Wait in infinite loop in case alt_main does return. */
alt_after_alt_main:
    br alt_after_alt_main
   80238:	003fff06 	br	80238 <alt_after_alt_main>

0008023c <adv7513_chip_identify>:
	{ 0x55, 0x02 },
};
#endif

int adv7513_chip_identify(struct hdmi_encoder *ec)
{
   8023c:	defffa04 	addi	sp,sp,-24
   80240:	de00012e 	bgeu	sp,et,80248 <adv7513_chip_identify+0xc>
   80244:	003da0fa 	break	3
   80248:	dfc00515 	stw	ra,20(sp)
   8024c:	df000415 	stw	fp,16(sp)
   80250:	df000404 	addi	fp,sp,16
   80254:	e13ffe15 	stw	r4,-8(fp)
	bool r = 0;
   80258:	e03ffd15 	stw	zero,-12(fp)

	r = I2C_Read(I2C_SCL_BASE, I2C_SDA_BASE, ec->slave_addr, ADV7513_REG_CHIP_REVISION, &ec->chip_rev[0]);
   8025c:	e0bffe17 	ldw	r2,-8(fp)
   80260:	10800017 	ldw	r2,0(r2)
   80264:	11803fcc 	andi	r6,r2,255
   80268:	3180201c 	xori	r6,r6,128
   8026c:	31bfe004 	addi	r6,r6,-128
   80270:	e0bffe17 	ldw	r2,-8(fp)
   80274:	10800804 	addi	r2,r2,32
   80278:	d8800015 	stw	r2,0(sp)
   8027c:	01000434 	movhi	r4,16
   80280:	21041004 	addi	r4,r4,4160
   80284:	01400434 	movhi	r5,16
   80288:	29441404 	addi	r5,r5,4176
   8028c:	000f883a 	mov	r7,zero
   80290:	008b3ec0 	call	8b3ec <I2C_Read>
   80294:	e0bffd15 	stw	r2,-12(fp)
	if (!r)
   80298:	e0bffd17 	ldw	r2,-12(fp)
   8029c:	1004c03a 	cmpne	r2,r2,zero
   802a0:	1000031e 	bne	r2,zero,802b0 <adv7513_chip_identify+0x74>
		return -1;
   802a4:	00bfffc4 	movi	r2,-1
   802a8:	e0bfff15 	stw	r2,-4(fp)
   802ac:	00002c06 	br	80360 <adv7513_chip_identify+0x124>

	r = I2C_Read(I2C_SCL_BASE, I2C_SDA_BASE, ec->slave_addr, ADV7513_REG_CHIP_ID_LOW, &ec->chip_id[0]);
   802b0:	e0bffe17 	ldw	r2,-8(fp)
   802b4:	10800017 	ldw	r2,0(r2)
   802b8:	11803fcc 	andi	r6,r2,255
   802bc:	3180201c 	xori	r6,r6,128
   802c0:	31bfe004 	addi	r6,r6,-128
   802c4:	e0bffe17 	ldw	r2,-8(fp)
   802c8:	10800704 	addi	r2,r2,28
   802cc:	d8800015 	stw	r2,0(sp)
   802d0:	01000434 	movhi	r4,16
   802d4:	21041004 	addi	r4,r4,4160
   802d8:	01400434 	movhi	r5,16
   802dc:	29441404 	addi	r5,r5,4176
   802e0:	01c03d84 	movi	r7,246
   802e4:	008b3ec0 	call	8b3ec <I2C_Read>
   802e8:	e0bffd15 	stw	r2,-12(fp)
	if (!r)
   802ec:	e0bffd17 	ldw	r2,-12(fp)
   802f0:	1004c03a 	cmpne	r2,r2,zero
   802f4:	1000031e 	bne	r2,zero,80304 <adv7513_chip_identify+0xc8>
		return -2;
   802f8:	00bfff84 	movi	r2,-2
   802fc:	e0bfff15 	stw	r2,-4(fp)
   80300:	00001706 	br	80360 <adv7513_chip_identify+0x124>

	r = I2C_Read(I2C_SCL_BASE, I2C_SDA_BASE, ec->slave_addr, ADV7513_REG_CHIP_ID_HIGH, &ec->chip_id[1]);
   80304:	e0bffe17 	ldw	r2,-8(fp)
   80308:	10800017 	ldw	r2,0(r2)
   8030c:	11803fcc 	andi	r6,r2,255
   80310:	3180201c 	xori	r6,r6,128
   80314:	31bfe004 	addi	r6,r6,-128
   80318:	e0bffe17 	ldw	r2,-8(fp)
   8031c:	10800704 	addi	r2,r2,28
   80320:	10800044 	addi	r2,r2,1
   80324:	d8800015 	stw	r2,0(sp)
   80328:	01000434 	movhi	r4,16
   8032c:	21041004 	addi	r4,r4,4160
   80330:	01400434 	movhi	r5,16
   80334:	29441404 	addi	r5,r5,4176
   80338:	01c03d44 	movi	r7,245
   8033c:	008b3ec0 	call	8b3ec <I2C_Read>
   80340:	e0bffd15 	stw	r2,-12(fp)
	if (!r)
   80344:	e0bffd17 	ldw	r2,-12(fp)
   80348:	1004c03a 	cmpne	r2,r2,zero
   8034c:	1000031e 	bne	r2,zero,8035c <adv7513_chip_identify+0x120>
		return -3;
   80350:	00bfff44 	movi	r2,-3
   80354:	e0bfff15 	stw	r2,-4(fp)
   80358:	00000106 	br	80360 <adv7513_chip_identify+0x124>

	return 0;
   8035c:	e03fff15 	stw	zero,-4(fp)
   80360:	e0bfff17 	ldw	r2,-4(fp)
}
   80364:	e037883a 	mov	sp,fp
   80368:	dfc00117 	ldw	ra,4(sp)
   8036c:	df000017 	ldw	fp,0(sp)
   80370:	dec00204 	addi	sp,sp,8
   80374:	f800283a 	ret

00080378 <adv7513_hpd_probe>:

int adv7513_hpd_probe(struct hdmi_encoder *ec)
{
   80378:	defffa04 	addi	sp,sp,-24
   8037c:	de00012e 	bgeu	sp,et,80384 <adv7513_hpd_probe+0xc>
   80380:	003da0fa 	break	3
   80384:	dfc00515 	stw	ra,20(sp)
   80388:	df000415 	stw	fp,16(sp)
   8038c:	df000404 	addi	fp,sp,16
   80390:	e13ffe15 	stw	r4,-8(fp)
	bool r = 0;
   80394:	e03ffc15 	stw	zero,-16(fp)
	alt_u8 regv = 0;
   80398:	e03ffd05 	stb	zero,-12(fp)

	ec->hpd_prev = ec->hpd_latest;
   8039c:	e0bffe17 	ldw	r2,-8(fp)
   803a0:	10c00317 	ldw	r3,12(r2)
   803a4:	e0bffe17 	ldw	r2,-8(fp)
   803a8:	10c00215 	stw	r3,8(r2)

	r = reg_read(ec, ADV7513_REG_STATUS, &regv);
   803ac:	e1bffd04 	addi	r6,fp,-12
   803b0:	e13ffe17 	ldw	r4,-8(fp)
   803b4:	01401084 	movi	r5,66
   803b8:	008ae9c0 	call	8ae9c <reg_read>
   803bc:	e0bffc15 	stw	r2,-16(fp)
	if (r != 0)
   803c0:	e0bffc17 	ldw	r2,-16(fp)
   803c4:	1005003a 	cmpeq	r2,r2,zero
   803c8:	1000031e 	bne	r2,zero,803d8 <adv7513_hpd_probe+0x60>
		return -1;
   803cc:	00bfffc4 	movi	r2,-1
   803d0:	e0bfff15 	stw	r2,-4(fp)
   803d4:	00003606 	br	804b0 <adv7513_hpd_probe+0x138>

	ec->hpd_latest = regv & ((ADV7513_STATUS_HPD) | (ADV7513_STATUS_MONITOR_SENSE));
   803d8:	e0bffd03 	ldbu	r2,-12(fp)
   803dc:	10803fcc 	andi	r2,r2,255
   803e0:	10c0180c 	andi	r3,r2,96
   803e4:	e0bffe17 	ldw	r2,-8(fp)
   803e8:	10c00315 	stw	r3,12(r2)
	ec->hpd_event = ec->hpd_latest ^ ec->hpd_prev;
   803ec:	e0bffe17 	ldw	r2,-8(fp)
   803f0:	10c00317 	ldw	r3,12(r2)
   803f4:	e0bffe17 	ldw	r2,-8(fp)
   803f8:	10800217 	ldw	r2,8(r2)
   803fc:	1886f03a 	xor	r3,r3,r2
   80400:	e0bffe17 	ldw	r2,-8(fp)
   80404:	10c00415 	stw	r3,16(r2)

	ec->hpd = 0;
   80408:	e0bffe17 	ldw	r2,-8(fp)
   8040c:	10000515 	stw	zero,20(r2)

	if ((ec->hpd_event != 0) && ((ec->hpd_latest & ((ADV7513_STATUS_HPD) | (ADV7513_STATUS_MONITOR_SENSE))) == ((ADV7513_STATUS_HPD) | (ADV7513_STATUS_MONITOR_SENSE)))) {
   80410:	e0bffe17 	ldw	r2,-8(fp)
   80414:	10800417 	ldw	r2,16(r2)
   80418:	1005003a 	cmpeq	r2,r2,zero
   8041c:	1000091e 	bne	r2,zero,80444 <adv7513_hpd_probe+0xcc>
   80420:	e0bffe17 	ldw	r2,-8(fp)
   80424:	10800317 	ldw	r2,12(r2)
   80428:	1080180c 	andi	r2,r2,96
   8042c:	10801818 	cmpnei	r2,r2,96
   80430:	1000041e 	bne	r2,zero,80444 <adv7513_hpd_probe+0xcc>
		// if hot-plug state changed and both HPD and monitor-sense are asserted
		ec->hpd = 1;
   80434:	e0fffe17 	ldw	r3,-8(fp)
   80438:	00800044 	movi	r2,1
   8043c:	18800515 	stw	r2,20(r3)
	ec->hpd_latest = regv & ((ADV7513_STATUS_HPD) | (ADV7513_STATUS_MONITOR_SENSE));
	ec->hpd_event = ec->hpd_latest ^ ec->hpd_prev;

	ec->hpd = 0;

	if ((ec->hpd_event != 0) && ((ec->hpd_latest & ((ADV7513_STATUS_HPD) | (ADV7513_STATUS_MONITOR_SENSE))) == ((ADV7513_STATUS_HPD) | (ADV7513_STATUS_MONITOR_SENSE)))) {
   80440:	00001a06 	br	804ac <adv7513_hpd_probe+0x134>
		// if hot-plug state changed and both HPD and monitor-sense are asserted
		ec->hpd = 1;
	} else {
		if ((ec->hpd_event & (ADV7513_STATUS_HPD)) && ((ec->hpd_latest & (ADV7513_STATUS_HPD)) == 0)) {
   80444:	e0bffe17 	ldw	r2,-8(fp)
   80448:	10800417 	ldw	r2,16(r2)
   8044c:	1080100c 	andi	r2,r2,64
   80450:	1005003a 	cmpeq	r2,r2,zero
   80454:	1000081e 	bne	r2,zero,80478 <adv7513_hpd_probe+0x100>
   80458:	e0bffe17 	ldw	r2,-8(fp)
   8045c:	10800317 	ldw	r2,12(r2)
   80460:	1080100c 	andi	r2,r2,64
   80464:	1004c03a 	cmpne	r2,r2,zero
   80468:	1000031e 	bne	r2,zero,80478 <adv7513_hpd_probe+0x100>
			// if HPD state changed and HPD was de-asserted
			ec->hpd = -1;
   8046c:	e0fffe17 	ldw	r3,-8(fp)
   80470:	00bfffc4 	movi	r2,-1
   80474:	18800515 	stw	r2,20(r3)
		}

		if ((ec->hpd_event & (ADV7513_STATUS_MONITOR_SENSE)) && ((ec->hpd_latest & (ADV7513_STATUS_MONITOR_SENSE)) == 0)) {
   80478:	e0bffe17 	ldw	r2,-8(fp)
   8047c:	10800417 	ldw	r2,16(r2)
   80480:	1080080c 	andi	r2,r2,32
   80484:	1005003a 	cmpeq	r2,r2,zero
   80488:	1000081e 	bne	r2,zero,804ac <adv7513_hpd_probe+0x134>
   8048c:	e0bffe17 	ldw	r2,-8(fp)
   80490:	10800317 	ldw	r2,12(r2)
   80494:	1080080c 	andi	r2,r2,32
   80498:	1004c03a 	cmpne	r2,r2,zero
   8049c:	1000031e 	bne	r2,zero,804ac <adv7513_hpd_probe+0x134>
			// if monitor-sense state changed and monitor-sense was de-asserted
			ec->hpd = -1;
   804a0:	e0fffe17 	ldw	r3,-8(fp)
   804a4:	00bfffc4 	movi	r2,-1
   804a8:	18800515 	stw	r2,20(r3)
	// 0xd6[7:6] <- (2 << 6) (HPD from HPD only) & 0xc0
	//r = reg_update_bits(ec, 0xd6, 0xc0 ,0x02 << 6);
	//if (r != 0)
	//	return -1;

	return 0;
   804ac:	e03fff15 	stw	zero,-4(fp)
   804b0:	e0bfff17 	ldw	r2,-4(fp)
}
   804b4:	e037883a 	mov	sp,fp
   804b8:	dfc00117 	ldw	ra,4(sp)
   804bc:	df000017 	ldw	fp,0(sp)
   804c0:	dec00204 	addi	sp,sp,8
   804c4:	f800283a 	ret

000804c8 <adv7513_do_hpd_powerup>:

int adv7513_do_hpd_powerup(struct hdmi_encoder *ec)
{
   804c8:	defffc04 	addi	sp,sp,-16
   804cc:	de00012e 	bgeu	sp,et,804d4 <adv7513_do_hpd_powerup+0xc>
   804d0:	003da0fa 	break	3
   804d4:	dfc00315 	stw	ra,12(sp)
   804d8:	df000215 	stw	fp,8(sp)
   804dc:	df000204 	addi	fp,sp,8
   804e0:	e13ffe15 	stw	r4,-8(fp)
	//printf("adv7513_do_hpd_powerup()\n");

	// power up the encoder
	if (reg_update_bits(ec, 0x41, 0x40, 0) != 0)
   804e4:	e13ffe17 	ldw	r4,-8(fp)
   804e8:	01401044 	movi	r5,65
   804ec:	01801004 	movi	r6,64
   804f0:	000f883a 	mov	r7,zero
   804f4:	008afc80 	call	8afc8 <reg_update_bits>
   804f8:	1005003a 	cmpeq	r2,r2,zero
   804fc:	1000031e 	bne	r2,zero,8050c <adv7513_do_hpd_powerup+0x44>
		return -1;
   80500:	00bfffc4 	movi	r2,-1
   80504:	e0bfff15 	stw	r2,-4(fp)
   80508:	00004b06 	br	80638 <adv7513_do_hpd_powerup+0x170>

	//usleep(150000);

	// table 14 -- fixed registers must be set after power up
	if (reg_write(ec, 0x98, 0x03) != 0)
   8050c:	e13ffe17 	ldw	r4,-8(fp)
   80510:	01402604 	movi	r5,152
   80514:	018000c4 	movi	r6,3
   80518:	008af300 	call	8af30 <reg_write>
   8051c:	1005003a 	cmpeq	r2,r2,zero
   80520:	1000031e 	bne	r2,zero,80530 <adv7513_do_hpd_powerup+0x68>
		return -1;
   80524:	00bfffc4 	movi	r2,-1
   80528:	e0bfff15 	stw	r2,-4(fp)
   8052c:	00004206 	br	80638 <adv7513_do_hpd_powerup+0x170>
	if (reg_update_bits(ec, 0x9a, 0xe0, 0x7 << 5) != 0)
   80530:	e13ffe17 	ldw	r4,-8(fp)
   80534:	01402684 	movi	r5,154
   80538:	01803804 	movi	r6,224
   8053c:	01c03804 	movi	r7,224
   80540:	008afc80 	call	8afc8 <reg_update_bits>
   80544:	1005003a 	cmpeq	r2,r2,zero
   80548:	1000031e 	bne	r2,zero,80558 <adv7513_do_hpd_powerup+0x90>
		return -1;
   8054c:	00bfffc4 	movi	r2,-1
   80550:	e0bfff15 	stw	r2,-4(fp)
   80554:	00003806 	br	80638 <adv7513_do_hpd_powerup+0x170>
	if (reg_write(ec, 0x9c, 0x30) != 0)
   80558:	e13ffe17 	ldw	r4,-8(fp)
   8055c:	01402704 	movi	r5,156
   80560:	01800c04 	movi	r6,48
   80564:	008af300 	call	8af30 <reg_write>
   80568:	1005003a 	cmpeq	r2,r2,zero
   8056c:	1000031e 	bne	r2,zero,8057c <adv7513_do_hpd_powerup+0xb4>
		return -1;
   80570:	00bfffc4 	movi	r2,-1
   80574:	e0bfff15 	stw	r2,-4(fp)
   80578:	00002f06 	br	80638 <adv7513_do_hpd_powerup+0x170>
	if (reg_update_bits(ec, 0x9d, 0x03, 0x01) != 0)
   8057c:	e13ffe17 	ldw	r4,-8(fp)
   80580:	01402744 	movi	r5,157
   80584:	018000c4 	movi	r6,3
   80588:	01c00044 	movi	r7,1
   8058c:	008afc80 	call	8afc8 <reg_update_bits>
   80590:	1005003a 	cmpeq	r2,r2,zero
   80594:	1000031e 	bne	r2,zero,805a4 <adv7513_do_hpd_powerup+0xdc>
		return -1;
   80598:	00bfffc4 	movi	r2,-1
   8059c:	e0bfff15 	stw	r2,-4(fp)
   805a0:	00002506 	br	80638 <adv7513_do_hpd_powerup+0x170>
	if (reg_write(ec, 0xa2, 0xa4) != 0)
   805a4:	e13ffe17 	ldw	r4,-8(fp)
   805a8:	01402884 	movi	r5,162
   805ac:	01802904 	movi	r6,164
   805b0:	008af300 	call	8af30 <reg_write>
   805b4:	1005003a 	cmpeq	r2,r2,zero
   805b8:	1000031e 	bne	r2,zero,805c8 <adv7513_do_hpd_powerup+0x100>
		return -1;
   805bc:	00bfffc4 	movi	r2,-1
   805c0:	e0bfff15 	stw	r2,-4(fp)
   805c4:	00001c06 	br	80638 <adv7513_do_hpd_powerup+0x170>
	if (reg_write(ec, 0xa3, 0xa4) != 0)
   805c8:	e13ffe17 	ldw	r4,-8(fp)
   805cc:	014028c4 	movi	r5,163
   805d0:	01802904 	movi	r6,164
   805d4:	008af300 	call	8af30 <reg_write>
   805d8:	1005003a 	cmpeq	r2,r2,zero
   805dc:	1000031e 	bne	r2,zero,805ec <adv7513_do_hpd_powerup+0x124>
		return -1;
   805e0:	00bfffc4 	movi	r2,-1
   805e4:	e0bfff15 	stw	r2,-4(fp)
   805e8:	00001306 	br	80638 <adv7513_do_hpd_powerup+0x170>
	if (reg_write(ec, 0xe0, 0xd0) != 0)
   805ec:	e13ffe17 	ldw	r4,-8(fp)
   805f0:	01403804 	movi	r5,224
   805f4:	01803404 	movi	r6,208
   805f8:	008af300 	call	8af30 <reg_write>
   805fc:	1005003a 	cmpeq	r2,r2,zero
   80600:	1000031e 	bne	r2,zero,80610 <adv7513_do_hpd_powerup+0x148>
		return -1;
   80604:	00bfffc4 	movi	r2,-1
   80608:	e0bfff15 	stw	r2,-4(fp)
   8060c:	00000a06 	br	80638 <adv7513_do_hpd_powerup+0x170>
	//if (reg_write(ec, 0xf9, 0x00) != 0)  // set to a non-conflicting i2c address (suggested addr: 0x00)
	//	return -1;

	// clear hpd interrupts
	// 0x96[7:6] <- 0xc0 & 0xc0
	if (reg_write(ec, 0x96, 0xff) != 0)
   80610:	e13ffe17 	ldw	r4,-8(fp)
   80614:	01402584 	movi	r5,150
   80618:	01803fc4 	movi	r6,255
   8061c:	008af300 	call	8af30 <reg_write>
   80620:	1005003a 	cmpeq	r2,r2,zero
   80624:	1000031e 	bne	r2,zero,80634 <adv7513_do_hpd_powerup+0x16c>
		return -1;
   80628:	00bfffc4 	movi	r2,-1
   8062c:	e0bfff15 	stw	r2,-4(fp)
   80630:	00000106 	br	80638 <adv7513_do_hpd_powerup+0x170>

	return 0;
   80634:	e03fff15 	stw	zero,-4(fp)
   80638:	e0bfff17 	ldw	r2,-4(fp)
}
   8063c:	e037883a 	mov	sp,fp
   80640:	dfc00117 	ldw	ra,4(sp)
   80644:	df000017 	ldw	fp,0(sp)
   80648:	dec00204 	addi	sp,sp,8
   8064c:	f800283a 	ret

00080650 <adv7513_kick_up>:
// interrupt if the monitor is in sleep mode and the cable is connected before downloading
// the program to the fpga board. It is verified that kick-off the encoder chip facilitates
// the encoder to detect monitor-sense signal at the program initialization process
//
extern int adv7513_kick_up(struct hdmi_encoder *ec)
{
   80650:	defffc04 	addi	sp,sp,-16
   80654:	de00012e 	bgeu	sp,et,8065c <adv7513_kick_up+0xc>
   80658:	003da0fa 	break	3
   8065c:	dfc00315 	stw	ra,12(sp)
   80660:	df000215 	stw	fp,8(sp)
   80664:	df000204 	addi	fp,sp,8
   80668:	e13ffe15 	stw	r4,-8(fp)
	// power up the encoder
	if (reg_update_bits(ec, 0x41, 0x40, 0) != 0)
   8066c:	e13ffe17 	ldw	r4,-8(fp)
   80670:	01401044 	movi	r5,65
   80674:	01801004 	movi	r6,64
   80678:	000f883a 	mov	r7,zero
   8067c:	008afc80 	call	8afc8 <reg_update_bits>
   80680:	1005003a 	cmpeq	r2,r2,zero
   80684:	1000031e 	bne	r2,zero,80694 <adv7513_kick_up+0x44>
		return -1;
   80688:	00bfffc4 	movi	r2,-1
   8068c:	e0bfff15 	stw	r2,-4(fp)
   80690:	00000106 	br	80698 <adv7513_kick_up+0x48>
	return 0;
   80694:	e03fff15 	stw	zero,-4(fp)
   80698:	e0bfff17 	ldw	r2,-4(fp)
}
   8069c:	e037883a 	mov	sp,fp
   806a0:	dfc00117 	ldw	ra,4(sp)
   806a4:	df000017 	ldw	fp,0(sp)
   806a8:	dec00204 	addi	sp,sp,8
   806ac:	f800283a 	ret

000806b0 <adv7513_do_hpd_powerdown>:

int adv7513_do_hpd_powerdown(struct hdmi_encoder *ec)
{
   806b0:	defffc04 	addi	sp,sp,-16
   806b4:	de00012e 	bgeu	sp,et,806bc <adv7513_do_hpd_powerdown+0xc>
   806b8:	003da0fa 	break	3
   806bc:	dfc00315 	stw	ra,12(sp)
   806c0:	df000215 	stw	fp,8(sp)
   806c4:	df000204 	addi	fp,sp,8
   806c8:	e13ffe15 	stw	r4,-8(fp)
	// power down the encoder
	if (reg_update_bits(ec, 0x41, 0x40, 0x40) != 0)
   806cc:	e13ffe17 	ldw	r4,-8(fp)
   806d0:	01401044 	movi	r5,65
   806d4:	01801004 	movi	r6,64
   806d8:	01c01004 	movi	r7,64
   806dc:	008afc80 	call	8afc8 <reg_update_bits>
   806e0:	1005003a 	cmpeq	r2,r2,zero
   806e4:	1000031e 	bne	r2,zero,806f4 <adv7513_do_hpd_powerdown+0x44>
		return -1;
   806e8:	00bfffc4 	movi	r2,-1
   806ec:	e0bfff15 	stw	r2,-4(fp)
   806f0:	00000106 	br	806f8 <adv7513_do_hpd_powerdown+0x48>

	return 0;
   806f4:	e03fff15 	stw	zero,-4(fp)
   806f8:	e0bfff17 	ldw	r2,-4(fp)
}
   806fc:	e037883a 	mov	sp,fp
   80700:	dfc00117 	ldw	ra,4(sp)
   80704:	df000017 	ldw	fp,0(sp)
   80708:	dec00204 	addi	sp,sp,8
   8070c:	f800283a 	ret

00080710 <adv7513_power_state>:

int adv7513_power_state(struct hdmi_encoder *ec, int *state)
{
   80710:	defff904 	addi	sp,sp,-28
   80714:	de00012e 	bgeu	sp,et,8071c <adv7513_power_state+0xc>
   80718:	003da0fa 	break	3
   8071c:	dfc00615 	stw	ra,24(sp)
   80720:	df000515 	stw	fp,20(sp)
   80724:	df000504 	addi	fp,sp,20
   80728:	e13ffd15 	stw	r4,-12(fp)
   8072c:	e17ffe15 	stw	r5,-8(fp)
	bool r = 0;
   80730:	e03ffb15 	stw	zero,-20(fp)
	alt_u8 regv = 0;
   80734:	e03ffc05 	stb	zero,-16(fp)

	r = reg_read(ec, 0x41, &regv);
   80738:	e1bffc04 	addi	r6,fp,-16
   8073c:	e13ffd17 	ldw	r4,-12(fp)
   80740:	01401044 	movi	r5,65
   80744:	008ae9c0 	call	8ae9c <reg_read>
   80748:	e0bffb15 	stw	r2,-20(fp)
	if (r != 0)
   8074c:	e0bffb17 	ldw	r2,-20(fp)
   80750:	1005003a 	cmpeq	r2,r2,zero
   80754:	1000031e 	bne	r2,zero,80764 <adv7513_power_state+0x54>
		return -1;
   80758:	00bfffc4 	movi	r2,-1
   8075c:	e0bfff15 	stw	r2,-4(fp)
   80760:	00000406 	br	80774 <adv7513_power_state+0x64>

	if ((regv & 0x40) == 1)
		*state = 0;
	else
		*state = 1;
   80764:	e0fffe17 	ldw	r3,-8(fp)
   80768:	00800044 	movi	r2,1
   8076c:	18800015 	stw	r2,0(r3)

	return 0;
   80770:	e03fff15 	stw	zero,-4(fp)
   80774:	e0bfff17 	ldw	r2,-4(fp)
}
   80778:	e037883a 	mov	sp,fp
   8077c:	dfc00117 	ldw	ra,4(sp)
   80780:	df000017 	ldw	fp,0(sp)
   80784:	dec00204 	addi	sp,sp,8
   80788:	f800283a 	ret

0008078c <adv7513_mode_state>:

int adv7513_mode_state(struct hdmi_encoder *ec, int *vic, const char **mode)
{
   8078c:	defff804 	addi	sp,sp,-32
   80790:	de00012e 	bgeu	sp,et,80798 <adv7513_mode_state+0xc>
   80794:	003da0fa 	break	3
   80798:	dfc00715 	stw	ra,28(sp)
   8079c:	df000615 	stw	fp,24(sp)
   807a0:	df000604 	addi	fp,sp,24
   807a4:	e13ffc15 	stw	r4,-16(fp)
   807a8:	e17ffd15 	stw	r5,-12(fp)
   807ac:	e1bffe15 	stw	r6,-8(fp)
		"720x480p @239.76/240 Hz (16:9)",
		"720(1440)x480i @239.76/240 Hz (4:3)",
		"720(1440)x480i @239.76/240 Hz (16:9)",
	};

	bool r = 0;
   807b0:	e03ffa15 	stw	zero,-24(fp)
	alt_u8 regv = 0;
   807b4:	e03ffb05 	stb	zero,-20(fp)

	r = reg_read(ec, 0x3d, &regv);
   807b8:	e1bffb04 	addi	r6,fp,-20
   807bc:	e13ffc17 	ldw	r4,-16(fp)
   807c0:	01400f44 	movi	r5,61
   807c4:	008ae9c0 	call	8ae9c <reg_read>
   807c8:	e0bffa15 	stw	r2,-24(fp)
	if (r != 0)
   807cc:	e0bffa17 	ldw	r2,-24(fp)
   807d0:	1005003a 	cmpeq	r2,r2,zero
   807d4:	1000031e 	bne	r2,zero,807e4 <adv7513_mode_state+0x58>
		return -1;
   807d8:	00bfffc4 	movi	r2,-1
   807dc:	e0bfff15 	stw	r2,-4(fp)
   807e0:	00001a06 	br	8084c <adv7513_mode_state+0xc0>

	*vic = regv & 0x1f;
   807e4:	e0bffb03 	ldbu	r2,-20(fp)
   807e8:	10803fcc 	andi	r2,r2,255
   807ec:	10c007cc 	andi	r3,r2,31
   807f0:	e0bffd17 	ldw	r2,-12(fp)
   807f4:	10c00015 	stw	r3,0(r2)

	if (*vic < 60) {
   807f8:	e0bffd17 	ldw	r2,-12(fp)
   807fc:	10800017 	ldw	r2,0(r2)
   80800:	10800f08 	cmpgei	r2,r2,60
   80804:	10000b1e 	bne	r2,zero,80834 <adv7513_mode_state+0xa8>
		*mode = vic_table[*vic];
   80808:	e0bffd17 	ldw	r2,-12(fp)
   8080c:	10800017 	ldw	r2,0(r2)
   80810:	00c002b4 	movhi	r3,10
   80814:	18fa2904 	addi	r3,r3,-5980
   80818:	1085883a 	add	r2,r2,r2
   8081c:	1085883a 	add	r2,r2,r2
   80820:	10c5883a 	add	r2,r2,r3
   80824:	10c00017 	ldw	r3,0(r2)
   80828:	e0bffe17 	ldw	r2,-8(fp)
   8082c:	10c00015 	stw	r3,0(r2)
   80830:	00000506 	br	80848 <adv7513_mode_state+0xbc>
	} else {
		*mode = vic_table[0];
   80834:	008002b4 	movhi	r2,10
   80838:	10ba2904 	addi	r2,r2,-5980
   8083c:	10c00017 	ldw	r3,0(r2)
   80840:	e0bffe17 	ldw	r2,-8(fp)
   80844:	10c00015 	stw	r3,0(r2)
	}

	return 0;
   80848:	e03fff15 	stw	zero,-4(fp)
   8084c:	e0bfff17 	ldw	r2,-4(fp)
}
   80850:	e037883a 	mov	sp,fp
   80854:	dfc00117 	ldw	ra,4(sp)
   80858:	df000017 	ldw	fp,0(sp)
   8085c:	dec00204 	addi	sp,sp,8
   80860:	f800283a 	ret

00080864 <adv7513_edid_read>:

int adv7513_edid_read(struct hdmi_encoder *ec, void *edid, int segment)
{
   80864:	defff604 	addi	sp,sp,-40
   80868:	de00012e 	bgeu	sp,et,80870 <adv7513_edid_read+0xc>
   8086c:	003da0fa 	break	3
   80870:	dfc00915 	stw	ra,36(sp)
   80874:	df000815 	stw	fp,32(sp)
   80878:	df000804 	addi	fp,sp,32
   8087c:	e13ffc15 	stw	r4,-16(fp)
   80880:	e17ffd15 	stw	r5,-12(fp)
   80884:	e1bffe15 	stw	r6,-8(fp)
	bool r = 0;
   80888:	e03ffb15 	stw	zero,-20(fp)
	alt_u8 *regv = (alt_u8 *)edid;
   8088c:	e0bffd17 	ldw	r2,-12(fp)
   80890:	e0bffa15 	stw	r2,-24(fp)
	int i;

	for (i = 0 + segment * 256; i < (segment + 1) * 256; ++i, ++regv) {
   80894:	e0bffe17 	ldw	r2,-8(fp)
   80898:	1004923a 	slli	r2,r2,8
   8089c:	e0bff915 	stw	r2,-28(fp)
   808a0:	00001b06 	br	80910 <adv7513_edid_read+0xac>
		r = I2C_Read(I2C_SCL_BASE, I2C_SDA_BASE, ec->edid_addr, i, regv);
   808a4:	e0bffc17 	ldw	r2,-16(fp)
   808a8:	10800117 	ldw	r2,4(r2)
   808ac:	11803fcc 	andi	r6,r2,255
   808b0:	3180201c 	xori	r6,r6,128
   808b4:	31bfe004 	addi	r6,r6,-128
   808b8:	e0bff917 	ldw	r2,-28(fp)
   808bc:	11c03fcc 	andi	r7,r2,255
   808c0:	e0bffa17 	ldw	r2,-24(fp)
   808c4:	d8800015 	stw	r2,0(sp)
   808c8:	01000434 	movhi	r4,16
   808cc:	21041004 	addi	r4,r4,4160
   808d0:	01400434 	movhi	r5,16
   808d4:	29441404 	addi	r5,r5,4176
   808d8:	008b3ec0 	call	8b3ec <I2C_Read>
   808dc:	e0bffb15 	stw	r2,-20(fp)
		if (!r)
   808e0:	e0bffb17 	ldw	r2,-20(fp)
   808e4:	1004c03a 	cmpne	r2,r2,zero
   808e8:	1000031e 	bne	r2,zero,808f8 <adv7513_edid_read+0x94>
			return -1;
   808ec:	00bfffc4 	movi	r2,-1
   808f0:	e0bfff15 	stw	r2,-4(fp)
   808f4:	00000c06 	br	80928 <adv7513_edid_read+0xc4>
{
	bool r = 0;
	alt_u8 *regv = (alt_u8 *)edid;
	int i;

	for (i = 0 + segment * 256; i < (segment + 1) * 256; ++i, ++regv) {
   808f8:	e0bff917 	ldw	r2,-28(fp)
   808fc:	10800044 	addi	r2,r2,1
   80900:	e0bff915 	stw	r2,-28(fp)
   80904:	e0bffa17 	ldw	r2,-24(fp)
   80908:	10800044 	addi	r2,r2,1
   8090c:	e0bffa15 	stw	r2,-24(fp)
   80910:	e0bffe17 	ldw	r2,-8(fp)
   80914:	1004923a 	slli	r2,r2,8
   80918:	10c04004 	addi	r3,r2,256
   8091c:	e0bff917 	ldw	r2,-28(fp)
   80920:	10ffe016 	blt	r2,r3,808a4 <adv7513_edid_read+0x40>
		r = I2C_Read(I2C_SCL_BASE, I2C_SDA_BASE, ec->edid_addr, i, regv);
		if (!r)
			return -1;
	}

	return 0;
   80924:	e03fff15 	stw	zero,-4(fp)
   80928:	e0bfff17 	ldw	r2,-4(fp)
}
   8092c:	e037883a 	mov	sp,fp
   80930:	dfc00117 	ldw	ra,4(sp)
   80934:	df000017 	ldw	fp,0(sp)
   80938:	dec00204 	addi	sp,sp,8
   8093c:	f800283a 	ret

00080940 <adv7513_regmap_dump>:

int adv7513_regmap_dump(struct hdmi_encoder *ec, void *data, int offset)
{
   80940:	defff604 	addi	sp,sp,-40
   80944:	de00012e 	bgeu	sp,et,8094c <adv7513_regmap_dump+0xc>
   80948:	003da0fa 	break	3
   8094c:	dfc00915 	stw	ra,36(sp)
   80950:	df000815 	stw	fp,32(sp)
   80954:	df000804 	addi	fp,sp,32
   80958:	e13ffc15 	stw	r4,-16(fp)
   8095c:	e17ffd15 	stw	r5,-12(fp)
   80960:	e1bffe15 	stw	r6,-8(fp)
	bool r = 0;
   80964:	e03ffb15 	stw	zero,-20(fp)
	alt_u8 *regv = (alt_u8 *)data;
   80968:	e0bffd17 	ldw	r2,-12(fp)
   8096c:	e0bffa15 	stw	r2,-24(fp)
	int i;

	for (i = 0; i < 256; ++i, ++regv) {
   80970:	e03ff915 	stw	zero,-28(fp)
   80974:	00001b06 	br	809e4 <adv7513_regmap_dump+0xa4>
		r = I2C_Read(I2C_SCL_BASE, I2C_SDA_BASE, ec->slave_addr, i, regv);
   80978:	e0bffc17 	ldw	r2,-16(fp)
   8097c:	10800017 	ldw	r2,0(r2)
   80980:	11803fcc 	andi	r6,r2,255
   80984:	3180201c 	xori	r6,r6,128
   80988:	31bfe004 	addi	r6,r6,-128
   8098c:	e0bff917 	ldw	r2,-28(fp)
   80990:	11c03fcc 	andi	r7,r2,255
   80994:	e0bffa17 	ldw	r2,-24(fp)
   80998:	d8800015 	stw	r2,0(sp)
   8099c:	01000434 	movhi	r4,16
   809a0:	21041004 	addi	r4,r4,4160
   809a4:	01400434 	movhi	r5,16
   809a8:	29441404 	addi	r5,r5,4176
   809ac:	008b3ec0 	call	8b3ec <I2C_Read>
   809b0:	e0bffb15 	stw	r2,-20(fp)
		if (!r)
   809b4:	e0bffb17 	ldw	r2,-20(fp)
   809b8:	1004c03a 	cmpne	r2,r2,zero
   809bc:	1000031e 	bne	r2,zero,809cc <adv7513_regmap_dump+0x8c>
			return -1;
   809c0:	00bfffc4 	movi	r2,-1
   809c4:	e0bfff15 	stw	r2,-4(fp)
   809c8:	00000a06 	br	809f4 <adv7513_regmap_dump+0xb4>
{
	bool r = 0;
	alt_u8 *regv = (alt_u8 *)data;
	int i;

	for (i = 0; i < 256; ++i, ++regv) {
   809cc:	e0bff917 	ldw	r2,-28(fp)
   809d0:	10800044 	addi	r2,r2,1
   809d4:	e0bff915 	stw	r2,-28(fp)
   809d8:	e0bffa17 	ldw	r2,-24(fp)
   809dc:	10800044 	addi	r2,r2,1
   809e0:	e0bffa15 	stw	r2,-24(fp)
   809e4:	e0bff917 	ldw	r2,-28(fp)
   809e8:	10804010 	cmplti	r2,r2,256
   809ec:	103fe21e 	bne	r2,zero,80978 <adv7513_regmap_dump+0x38>
		r = I2C_Read(I2C_SCL_BASE, I2C_SDA_BASE, ec->slave_addr, i, regv);
		if (!r)
			return -1;
	}

	return 0;
   809f0:	e03fff15 	stw	zero,-4(fp)
   809f4:	e0bfff17 	ldw	r2,-4(fp)
}
   809f8:	e037883a 	mov	sp,fp
   809fc:	dfc00117 	ldw	ra,4(sp)
   80a00:	df000017 	ldw	fp,0(sp)
   80a04:	dec00204 	addi	sp,sp,8
   80a08:	f800283a 	ret

00080a0c <adv7513_config_csc>:

// color space converter (section 4.3.8)
static int adv7513_config_csc(struct hdmi_encoder *ec, int enable, void *config)
{
   80a0c:	defff804 	addi	sp,sp,-32
   80a10:	de00012e 	bgeu	sp,et,80a18 <adv7513_config_csc+0xc>
   80a14:	003da0fa 	break	3
   80a18:	dfc00715 	stw	ra,28(sp)
   80a1c:	df000615 	stw	fp,24(sp)
   80a20:	df000604 	addi	fp,sp,24
   80a24:	e13ffb15 	stw	r4,-20(fp)
   80a28:	e17ffc15 	stw	r5,-16(fp)
   80a2c:	e1bffd15 	stw	r6,-12(fp)
	//printf("adv7513_config_csc()\n");

	// 0x18[7] <- enable
	// 0x18[6:5] <- scaling
	// 0x18[4:0] <- csc_a1[4:0]
	int regv = (enable ? 1 : 0) << 7;
   80a30:	e0bffc17 	ldw	r2,-16(fp)
   80a34:	1005003a 	cmpeq	r2,r2,zero
   80a38:	1000031e 	bne	r2,zero,80a48 <adv7513_config_csc+0x3c>
   80a3c:	00802004 	movi	r2,128
   80a40:	e0bfff15 	stw	r2,-4(fp)
   80a44:	00000106 	br	80a4c <adv7513_config_csc+0x40>
   80a48:	e03fff15 	stw	zero,-4(fp)
   80a4c:	e0bfff17 	ldw	r2,-4(fp)
   80a50:	e0bffa15 	stw	r2,-24(fp)
	if (reg_update_bits(ec, 0x18, 0x80, regv) != 0)
   80a54:	e13ffb17 	ldw	r4,-20(fp)
   80a58:	01400604 	movi	r5,24
   80a5c:	01802004 	movi	r6,128
   80a60:	e1fffa17 	ldw	r7,-24(fp)
   80a64:	008afc80 	call	8afc8 <reg_update_bits>
   80a68:	1005003a 	cmpeq	r2,r2,zero
   80a6c:	1000031e 	bne	r2,zero,80a7c <adv7513_config_csc+0x70>
		return -1;
   80a70:	00bfffc4 	movi	r2,-1
   80a74:	e0bffe15 	stw	r2,-8(fp)
   80a78:	00000106 	br	80a80 <adv7513_config_csc+0x74>
	// 0x2d[7:0] <- csc_c3[12:5]

	// 0x2e[4:0] <- csc_c4[4:0]
	// 0x2f[7:0] <- csc_c4[12:5]

	return 0;
   80a7c:	e03ffe15 	stw	zero,-8(fp)
   80a80:	e0bffe17 	ldw	r2,-8(fp)
}
   80a84:	e037883a 	mov	sp,fp
   80a88:	dfc00117 	ldw	ra,4(sp)
   80a8c:	df000017 	ldw	fp,0(sp)
   80a90:	dec00204 	addi	sp,sp,8
   80a94:	f800283a 	ret

00080a98 <adv7513_video_in_format>:
// depth       - adv7513_input_color_depth
// color_space - adv7513_input_color_space
// aspect      - adv7513_input_aspect_ratio
// style       - adv7513_input_style
static int adv7513_video_in_format(struct hdmi_encoder *ec, int id, int depth, int color_space, int aspect, int style)
{
   80a98:	defff804 	addi	sp,sp,-32
   80a9c:	de00012e 	bgeu	sp,et,80aa4 <adv7513_video_in_format+0xc>
   80aa0:	003da0fa 	break	3
   80aa4:	dfc00715 	stw	ra,28(sp)
   80aa8:	df000615 	stw	fp,24(sp)
   80aac:	df000604 	addi	fp,sp,24
   80ab0:	e13ffb15 	stw	r4,-20(fp)
   80ab4:	e17ffc15 	stw	r5,-16(fp)
   80ab8:	e1bffd15 	stw	r6,-12(fp)
   80abc:	e1fffe15 	stw	r7,-8(fp)
	int regv;

	//printf("adv7513_video_in_format()\n");

	// 0x15[3:0] <- id
	if (reg_update_bits(ec, 0x15, 0x0f, id) != 0)
   80ac0:	e13ffb17 	ldw	r4,-20(fp)
   80ac4:	01400544 	movi	r5,21
   80ac8:	018003c4 	movi	r6,15
   80acc:	e1fffc17 	ldw	r7,-16(fp)
   80ad0:	008afc80 	call	8afc8 <reg_update_bits>
   80ad4:	1005003a 	cmpeq	r2,r2,zero
   80ad8:	1000031e 	bne	r2,zero,80ae8 <adv7513_video_in_format+0x50>
		return -1;
   80adc:	00bfffc4 	movi	r2,-1
   80ae0:	e0bfff15 	stw	r2,-4(fp)
   80ae4:	00002406 	br	80b78 <adv7513_video_in_format+0xe0>

	// 0x16[5:4] <- depth
	// 0x16[3:2] <- style
	// 0x16[0] <- color_space
	regv = ((depth & 0x03) << 4) | ((style & 0x03) << 2) | (color_space & 0x01);
   80ae8:	e0bffd17 	ldw	r2,-12(fp)
   80aec:	108000cc 	andi	r2,r2,3
   80af0:	1006913a 	slli	r3,r2,4
   80af4:	e0800317 	ldw	r2,12(fp)
   80af8:	108000cc 	andi	r2,r2,3
   80afc:	1085883a 	add	r2,r2,r2
   80b00:	1085883a 	add	r2,r2,r2
   80b04:	1886b03a 	or	r3,r3,r2
   80b08:	e0bffe17 	ldw	r2,-8(fp)
   80b0c:	1080004c 	andi	r2,r2,1
   80b10:	1884b03a 	or	r2,r3,r2
   80b14:	e0bffa15 	stw	r2,-24(fp)
	if (reg_update_bits(ec, 0x16, 0x3d, regv) != 0)
   80b18:	e13ffb17 	ldw	r4,-20(fp)
   80b1c:	01400584 	movi	r5,22
   80b20:	01800f44 	movi	r6,61
   80b24:	e1fffa17 	ldw	r7,-24(fp)
   80b28:	008afc80 	call	8afc8 <reg_update_bits>
   80b2c:	1005003a 	cmpeq	r2,r2,zero
   80b30:	1000031e 	bne	r2,zero,80b40 <adv7513_video_in_format+0xa8>
		return -1;
   80b34:	00bfffc4 	movi	r2,-1
   80b38:	e0bfff15 	stw	r2,-4(fp)
   80b3c:	00000e06 	br	80b78 <adv7513_video_in_format+0xe0>

	// 0x17[1] <- aspect
	if (reg_update_bits(ec, 0x17, 0x02, (aspect & 0x01) << 1) != 0)
   80b40:	e0800217 	ldw	r2,8(fp)
   80b44:	1080004c 	andi	r2,r2,1
   80b48:	1085883a 	add	r2,r2,r2
   80b4c:	100f883a 	mov	r7,r2
   80b50:	e13ffb17 	ldw	r4,-20(fp)
   80b54:	014005c4 	movi	r5,23
   80b58:	01800084 	movi	r6,2
   80b5c:	008afc80 	call	8afc8 <reg_update_bits>
   80b60:	1005003a 	cmpeq	r2,r2,zero
   80b64:	1000031e 	bne	r2,zero,80b74 <adv7513_video_in_format+0xdc>
		return -1;
   80b68:	00bfffc4 	movi	r2,-1
   80b6c:	e0bfff15 	stw	r2,-4(fp)
   80b70:	00000106 	br	80b78 <adv7513_video_in_format+0xe0>

	return 0;
   80b74:	e03fff15 	stw	zero,-4(fp)
   80b78:	e0bfff17 	ldw	r2,-4(fp)
}
   80b7c:	e037883a 	mov	sp,fp
   80b80:	dfc00117 	ldw	ra,4(sp)
   80b84:	df000017 	ldw	fp,0(sp)
   80b88:	dec00204 	addi	sp,sp,8
   80b8c:	f800283a 	ret

00080b90 <adv7513_video_out_format>:
// out video format
//
// format   - adv7513_output_format
// dvi		- adv7513_hdmi_dvi
static int adv7513_video_out_format(struct hdmi_encoder *ec, int format, int dvi)
{
   80b90:	defff904 	addi	sp,sp,-28
   80b94:	de00012e 	bgeu	sp,et,80b9c <adv7513_video_out_format+0xc>
   80b98:	003da0fa 	break	3
   80b9c:	dfc00615 	stw	ra,24(sp)
   80ba0:	df000515 	stw	fp,20(sp)
   80ba4:	df000504 	addi	fp,sp,20
   80ba8:	e13ffc15 	stw	r4,-16(fp)
   80bac:	e17ffd15 	stw	r5,-12(fp)
   80bb0:	e1bffe15 	stw	r6,-8(fp)
	int regv;

	//printf("adv7513_video_out_format()\n");

	// 0x16[7] <- format
	regv = (format & 0x01) << 7;
   80bb4:	e0bffd17 	ldw	r2,-12(fp)
   80bb8:	1080004c 	andi	r2,r2,1
   80bbc:	100491fa 	slli	r2,r2,7
   80bc0:	e0bffb15 	stw	r2,-20(fp)
	if (reg_update_bits(ec, 0x16, 0x80, regv) != 0)
   80bc4:	e13ffc17 	ldw	r4,-16(fp)
   80bc8:	01400584 	movi	r5,22
   80bcc:	01802004 	movi	r6,128
   80bd0:	e1fffb17 	ldw	r7,-20(fp)
   80bd4:	008afc80 	call	8afc8 <reg_update_bits>
   80bd8:	1005003a 	cmpeq	r2,r2,zero
   80bdc:	1000031e 	bne	r2,zero,80bec <adv7513_video_out_format+0x5c>
		return -1;
   80be0:	00bfffc4 	movi	r2,-1
   80be4:	e0bfff15 	stw	r2,-4(fp)
   80be8:	00003706 	br	80cc8 <adv7513_video_out_format+0x138>

	// 0x18 ~ 0x2f
	if (adv7513_config_csc(ec, 0, 0) != 0) {
   80bec:	e13ffc17 	ldw	r4,-16(fp)
   80bf0:	000b883a 	mov	r5,zero
   80bf4:	000d883a 	mov	r6,zero
   80bf8:	0080a0c0 	call	80a0c <adv7513_config_csc>
   80bfc:	1005003a 	cmpeq	r2,r2,zero
   80c00:	1000031e 	bne	r2,zero,80c10 <adv7513_video_out_format+0x80>
		return -1;
   80c04:	00bfffc4 	movi	r2,-1
   80c08:	e0bfff15 	stw	r2,-4(fp)
   80c0c:	00002e06 	br	80cc8 <adv7513_video_out_format+0x138>
	}

	// 0xaf[7] <- hdcp (enable/disable)
	// 0xaf[1] <- dvi (section 4.2.2)
	if (reg_update_bits(ec, 0xaf, 0x82, (dvi & 0x01) << 1) != 0)
   80c10:	e0bffe17 	ldw	r2,-8(fp)
   80c14:	1080004c 	andi	r2,r2,1
   80c18:	1085883a 	add	r2,r2,r2
   80c1c:	100f883a 	mov	r7,r2
   80c20:	e13ffc17 	ldw	r4,-16(fp)
   80c24:	01402bc4 	movi	r5,175
   80c28:	01802084 	movi	r6,130
   80c2c:	008afc80 	call	8afc8 <reg_update_bits>
   80c30:	1005003a 	cmpeq	r2,r2,zero
   80c34:	1000031e 	bne	r2,zero,80c44 <adv7513_video_out_format+0xb4>
		return -1;
   80c38:	00bfffc4 	movi	r2,-1
   80c3c:	e0bfff15 	stw	r2,-4(fp)
   80c40:	00002106 	br	80cc8 <adv7513_video_out_format+0x138>

	// general control packet
	// 0x40[7] <- gc (section 4.2.3 && 4.3.3)
	if (dvi == ADV7513_MODE_HDMI) {
   80c44:	e0bffe17 	ldw	r2,-8(fp)
   80c48:	10800058 	cmpnei	r2,r2,1
   80c4c:	10000a1e 	bne	r2,zero,80c78 <adv7513_video_out_format+0xe8>
		if (reg_update_bits(ec, 0x40, 0x80, (1 & 0x01) << 7) != 0)
   80c50:	e13ffc17 	ldw	r4,-16(fp)
   80c54:	01401004 	movi	r5,64
   80c58:	01802004 	movi	r6,128
   80c5c:	01c02004 	movi	r7,128
   80c60:	008afc80 	call	8afc8 <reg_update_bits>
   80c64:	1005003a 	cmpeq	r2,r2,zero
   80c68:	10000c1e 	bne	r2,zero,80c9c <adv7513_video_out_format+0x10c>
			return -1;
   80c6c:	00bfffc4 	movi	r2,-1
   80c70:	e0bfff15 	stw	r2,-4(fp)
   80c74:	00001406 	br	80cc8 <adv7513_video_out_format+0x138>
	} else {
		if (reg_clear_bits(ec, 0x40, 0x80) != 0)
   80c78:	e13ffc17 	ldw	r4,-16(fp)
   80c7c:	01401004 	movi	r5,64
   80c80:	01802004 	movi	r6,128
   80c84:	008b2000 	call	8b200 <reg_clear_bits>
   80c88:	1005003a 	cmpeq	r2,r2,zero
   80c8c:	1000031e 	bne	r2,zero,80c9c <adv7513_video_out_format+0x10c>
			return -1;
   80c90:	00bfffc4 	movi	r2,-1
   80c94:	e0bfff15 	stw	r2,-4(fp)
   80c98:	00000b06 	br	80cc8 <adv7513_video_out_format+0x138>
	}

	// 0x4c[3:0] <- gc_depth (section 4.2.6)
	if (reg_update_bits(ec, 0x4c, 0x0f, 4 & 0x0f) != 0)
   80c9c:	e13ffc17 	ldw	r4,-16(fp)
   80ca0:	01401304 	movi	r5,76
   80ca4:	018003c4 	movi	r6,15
   80ca8:	01c00104 	movi	r7,4
   80cac:	008afc80 	call	8afc8 <reg_update_bits>
   80cb0:	1005003a 	cmpeq	r2,r2,zero
   80cb4:	1000031e 	bne	r2,zero,80cc4 <adv7513_video_out_format+0x134>
		return -1;
   80cb8:	00bfffc4 	movi	r2,-1
   80cbc:	e0bfff15 	stw	r2,-4(fp)
   80cc0:	00000106 	br	80cc8 <adv7513_video_out_format+0x138>
	// VIC <- vga 4:3
	// 0x3c[5:0] <- 0x01 & 0x3f
	//if (reg_update_bits(ec, 0x3c, 0x3f, 0x01) != 0)
	//	return -1;

	return 0;
   80cc4:	e03fff15 	stw	zero,-4(fp)
   80cc8:	e0bfff17 	ldw	r2,-4(fp)
}
   80ccc:	e037883a 	mov	sp,fp
   80cd0:	dfc00117 	ldw	ra,4(sp)
   80cd4:	df000017 	ldw	fp,0(sp)
   80cd8:	dec00204 	addi	sp,sp,8
   80cdc:	f800283a 	ret

00080ce0 <adv7513_avi_infoframe>:
//   CEA-861-D --section 6.2
//   ADV7513 programmer's manual -- section 4.3.9.1
//
// 0x52 ~ 0x71
static int adv7513_avi_infoframe(struct hdmi_encoder *ec)
{
   80ce0:	defffa04 	addi	sp,sp,-24
   80ce4:	de00012e 	bgeu	sp,et,80cec <adv7513_avi_infoframe+0xc>
   80ce8:	003da0fa 	break	3
   80cec:	dfc00515 	stw	ra,20(sp)
   80cf0:	df000415 	stw	fp,16(sp)
   80cf4:	df000404 	addi	fp,sp,16
   80cf8:	e13ffe15 	stw	r4,-8(fp)
	struct avi_infoframe *avi = &ec->avi_if;
   80cfc:	e0bffe17 	ldw	r2,-8(fp)
   80d00:	10800904 	addi	r2,r2,36
   80d04:	e0bffd15 	stw	r2,-12(fp)
	int regv;

	//printf("adv7513_avi_infoframe()\n");

#if 1  // local development defaults
	avi->scan_info = 2;  		// scan
   80d08:	e0fffd17 	ldw	r3,-12(fp)
   80d0c:	00800084 	movi	r2,2
   80d10:	18800015 	stw	r2,0(r3)
	avi->rgb_ycbcr = 0;			// rgb or ycbcr
   80d14:	e0bffd17 	ldw	r2,-12(fp)
   80d18:	10000315 	stw	zero,12(r2)
	//avi->f7 = 0;				// reserved
	avi->active_fmt = 1;		// active format r3r0 valid
   80d1c:	e0fffd17 	ldw	r3,-12(fp)
   80d20:	00800044 	movi	r2,1
   80d24:	18800215 	stw	r2,8(r3)
	avi->active_fmt_ar = 8;		// active format aspect ratio
   80d28:	e0fffd17 	ldw	r3,-12(fp)
   80d2c:	00800204 	movi	r2,8
   80d30:	18800415 	stw	r2,16(r3)
	avi->pict_ar = 1;			// picture aspect ratio
   80d34:	e0fffd17 	ldw	r3,-12(fp)
   80d38:	00800044 	movi	r2,1
   80d3c:	18800515 	stw	r2,20(r3)
	avi->colorimetry = 0;		// colorimetry
   80d40:	e0bffd17 	ldw	r2,-12(fp)
   80d44:	10000615 	stw	zero,24(r2)
	avi->colorimetry_ext = 0;	// extended colorimetry
   80d48:	e0bffd17 	ldw	r2,-12(fp)
   80d4c:	10000915 	stw	zero,36(r2)
	avi->scaling = 0;			// non-uniform scaling
   80d50:	e0bffd17 	ldw	r2,-12(fp)
   80d54:	10000715 	stw	zero,28(r2)
	avi->quant = 0;				// rgb quantization range
   80d58:	e0bffd17 	ldw	r2,-12(fp)
   80d5c:	10000815 	stw	zero,32(r2)
	avi->itc = 0;				// it content
   80d60:	e0bffd17 	ldw	r2,-12(fp)
   80d64:	10000a15 	stw	zero,40(r2)
	avi->pr = 0;				// pixel repetition factor
   80d68:	e0bffd17 	ldw	r2,-12(fp)
   80d6c:	10000c15 	stw	zero,48(r2)
	avi->vic = 1;				// video identification code
   80d70:	e0fffd17 	ldw	r3,-12(fp)
   80d74:	00800044 	movi	r2,1
   80d78:	18800b15 	stw	r2,44(r3)
	avi->yq1yq0 = 0;			// ??
   80d7c:	e0bffd17 	ldw	r2,-12(fp)
   80d80:	10000d15 	stw	zero,52(r2)

	avi->bar_info = 1;  		// bar fields valid
   80d84:	e0fffd17 	ldw	r3,-12(fp)
   80d88:	00800044 	movi	r2,1
   80d8c:	18800115 	stw	r2,4(r3)
	avi->bar.top_e = 0;
   80d90:	e0bffd17 	ldw	r2,-12(fp)
   80d94:	10000e15 	stw	zero,56(r2)
	avi->bar.bottom_s = 0;
   80d98:	e0bffd17 	ldw	r2,-12(fp)
   80d9c:	10000f15 	stw	zero,60(r2)
	avi->bar.left_e = 0;
   80da0:	e0bffd17 	ldw	r2,-12(fp)
   80da4:	10001015 	stw	zero,64(r2)
	avi->bar.right_s = 0;
   80da8:	e0bffd17 	ldw	r2,-12(fp)
   80dac:	10001115 	stw	zero,68(r2)
	//   0x55[6:5]
	//   0x56[5:4]

	// 0x44[4] avi infoframe enable 0)disable 1)enable
	// 0x44[3] audio infoframe enable 0)disable 1)enable
	if (reg_update_bits(ec, 0x44, 0x10, 1 << 4) != 0)
   80db0:	e13ffe17 	ldw	r4,-8(fp)
   80db4:	01401104 	movi	r5,68
   80db8:	01800404 	movi	r6,16
   80dbc:	01c00404 	movi	r7,16
   80dc0:	008afc80 	call	8afc8 <reg_update_bits>
   80dc4:	1005003a 	cmpeq	r2,r2,zero
   80dc8:	1000031e 	bne	r2,zero,80dd8 <adv7513_avi_infoframe+0xf8>
		return -1;
   80dcc:	00bfffc4 	movi	r2,-1
   80dd0:	e0bfff15 	stw	r2,-4(fp)
   80dd4:	0000e006 	br	81158 <adv7513_avi_infoframe+0x478>

	// 0x4a[7] <- auto checksum
	// 0x4a[6] avi infoframe packet update 0)locked-by-packet_buffer 1)locked-by-i2c
	// 0x4a[5] audio infoframe packet update 0)locked-by-packet_buffer 1)locked-by-i2c
	// 0x4a[4] gc packet update 0)locked-by-packet_buffer 1)locked-by-i2c
	if (reg_update_bits(ec, 0x4a, 0xc0, 3 << 6) != 0)
   80dd8:	e13ffe17 	ldw	r4,-8(fp)
   80ddc:	01401284 	movi	r5,74
   80de0:	01803004 	movi	r6,192
   80de4:	01c03004 	movi	r7,192
   80de8:	008afc80 	call	8afc8 <reg_update_bits>
   80dec:	1005003a 	cmpeq	r2,r2,zero
   80df0:	1000031e 	bne	r2,zero,80e00 <adv7513_avi_infoframe+0x120>
		return -1;
   80df4:	00bfffc4 	movi	r2,-1
   80df8:	e0bfff15 	stw	r2,-4(fp)
   80dfc:	0000d606 	br	81158 <adv7513_avi_infoframe+0x478>

	// 0x55[6:5] <- output format 0)rgb 1)ycbcr422 2)ycbcr444
	// 0x55[4]   <- active format indicator 0)no-data 1)valid (bar, scan, colorimetry, non-uniform-scaling, active-aspect-ratio)
	// 0x55[3:2] <- bar 0)invalid-bar 1)vertical 2)horizontal 3)both
	// 0x55[1:0] <- scan 0)no-data 1)tv 2)pc 3)none
	regv = ((avi->rgb_ycbcr & 0x03) << 5) | ((avi->active_fmt & 0x01) << 4) | ((avi->bar_info & 0x03) << 2) | ((avi->scan_info & 0x03) << 0);
   80e00:	e0bffd17 	ldw	r2,-12(fp)
   80e04:	10800317 	ldw	r2,12(r2)
   80e08:	108000cc 	andi	r2,r2,3
   80e0c:	1006917a 	slli	r3,r2,5
   80e10:	e0bffd17 	ldw	r2,-12(fp)
   80e14:	10800217 	ldw	r2,8(r2)
   80e18:	1080004c 	andi	r2,r2,1
   80e1c:	1004913a 	slli	r2,r2,4
   80e20:	1886b03a 	or	r3,r3,r2
   80e24:	e0bffd17 	ldw	r2,-12(fp)
   80e28:	10800117 	ldw	r2,4(r2)
   80e2c:	108000cc 	andi	r2,r2,3
   80e30:	1085883a 	add	r2,r2,r2
   80e34:	1085883a 	add	r2,r2,r2
   80e38:	1886b03a 	or	r3,r3,r2
   80e3c:	e0bffd17 	ldw	r2,-12(fp)
   80e40:	10800017 	ldw	r2,0(r2)
   80e44:	108000cc 	andi	r2,r2,3
   80e48:	1884b03a 	or	r2,r3,r2
   80e4c:	e0bffc15 	stw	r2,-16(fp)
	if (reg_update_bits(ec, 0x55, 0x70, regv) != 0)
   80e50:	e13ffe17 	ldw	r4,-8(fp)
   80e54:	01401544 	movi	r5,85
   80e58:	01801c04 	movi	r6,112
   80e5c:	e1fffc17 	ldw	r7,-16(fp)
   80e60:	008afc80 	call	8afc8 <reg_update_bits>
   80e64:	1005003a 	cmpeq	r2,r2,zero
   80e68:	1000031e 	bne	r2,zero,80e78 <adv7513_avi_infoframe+0x198>
		return -1;
   80e6c:	00bfffc4 	movi	r2,-1
   80e70:	e0bfff15 	stw	r2,-4(fp)
   80e74:	0000b806 	br	81158 <adv7513_avi_infoframe+0x478>

	// 0x56[7:6] <- colorimetry 0)no-data 1)ITU601 2)ITU709 3)extended <- 0x57[6:4]
	// 0x56[5:4] <- picture aspect ratio 0)no-data 1)4:3 2)16:9 3)none
	// 0x56[3:0] <- active aspect ratio 8)same as 0x56[5:4] 9)4:3 10)16:0 11)14:9
	regv = ((avi->colorimetry & 0x03) << 6) | ((avi->pict_ar & 0x03) << 4) | ((avi->active_fmt_ar & 0x0f) << 0);
   80e78:	e0bffd17 	ldw	r2,-12(fp)
   80e7c:	10800617 	ldw	r2,24(r2)
   80e80:	108000cc 	andi	r2,r2,3
   80e84:	100691ba 	slli	r3,r2,6
   80e88:	e0bffd17 	ldw	r2,-12(fp)
   80e8c:	10800517 	ldw	r2,20(r2)
   80e90:	108000cc 	andi	r2,r2,3
   80e94:	1004913a 	slli	r2,r2,4
   80e98:	1886b03a 	or	r3,r3,r2
   80e9c:	e0bffd17 	ldw	r2,-12(fp)
   80ea0:	10800417 	ldw	r2,16(r2)
   80ea4:	108003cc 	andi	r2,r2,15
   80ea8:	1884b03a 	or	r2,r3,r2
   80eac:	e0bffc15 	stw	r2,-16(fp)
	if (reg_write(ec, 0x56, regv) != 0)
   80eb0:	e13ffe17 	ldw	r4,-8(fp)
   80eb4:	01401584 	movi	r5,86
   80eb8:	e1bffc17 	ldw	r6,-16(fp)
   80ebc:	008af300 	call	8af30 <reg_write>
   80ec0:	1005003a 	cmpeq	r2,r2,zero
   80ec4:	1000031e 	bne	r2,zero,80ed4 <adv7513_avi_infoframe+0x1f4>
		return -1;
   80ec8:	00bfffc4 	movi	r2,-1
   80ecc:	e0bfff15 	stw	r2,-4(fp)
   80ed0:	0000a106 	br	81158 <adv7513_avi_infoframe+0x478>

	// 0x57[7] <- itc 0)none 1)available in 0x59[5:4]
	// 0x57[6:4] <- extended colorimetry 0)xvYCC601 1)xvYCC701 2)sYCC601 3)AdobeYCC601 4)AdobeRGB
	// 0x57[3:2] <- rgb quantization range 0)default 1)limited 2)full 11)reserved
	// 0x57[1:0] <- non-uniform picture scaling 0)unknown 1)h-scaling 2) v-scaling 3)h/v scaling
	regv = ((avi->itc & 0x01) << 7) | ((avi->colorimetry_ext & 0x07) << 4) | ((avi->quant & 0x03) << 2) | ((avi->scaling & 0x03) << 0);
   80ed4:	e0bffd17 	ldw	r2,-12(fp)
   80ed8:	10800a17 	ldw	r2,40(r2)
   80edc:	1080004c 	andi	r2,r2,1
   80ee0:	100691fa 	slli	r3,r2,7
   80ee4:	e0bffd17 	ldw	r2,-12(fp)
   80ee8:	10800917 	ldw	r2,36(r2)
   80eec:	108001cc 	andi	r2,r2,7
   80ef0:	1004913a 	slli	r2,r2,4
   80ef4:	1886b03a 	or	r3,r3,r2
   80ef8:	e0bffd17 	ldw	r2,-12(fp)
   80efc:	10800817 	ldw	r2,32(r2)
   80f00:	108000cc 	andi	r2,r2,3
   80f04:	1085883a 	add	r2,r2,r2
   80f08:	1085883a 	add	r2,r2,r2
   80f0c:	1886b03a 	or	r3,r3,r2
   80f10:	e0bffd17 	ldw	r2,-12(fp)
   80f14:	10800717 	ldw	r2,28(r2)
   80f18:	108000cc 	andi	r2,r2,3
   80f1c:	1884b03a 	or	r2,r3,r2
   80f20:	e0bffc15 	stw	r2,-16(fp)
	if (reg_write(ec, 0x57, regv) != 0)
   80f24:	e13ffe17 	ldw	r4,-8(fp)
   80f28:	014015c4 	movi	r5,87
   80f2c:	e1bffc17 	ldw	r6,-16(fp)
   80f30:	008af300 	call	8af30 <reg_write>
   80f34:	1005003a 	cmpeq	r2,r2,zero
   80f38:	1000031e 	bne	r2,zero,80f48 <adv7513_avi_infoframe+0x268>
		return -1;
   80f3c:	00bfffc4 	movi	r2,-1
   80f40:	e0bfff15 	stw	r2,-4(fp)
   80f44:	00008406 	br	81158 <adv7513_avi_infoframe+0x478>

	// 0x59[7:4] <- extended colorimetry 0)xvYCC601 1)xvYCC701 2)sYCC601 3)AdobeYCC601 4)AdobeRGB
	regv = ((avi->yq1yq0 & 0x0f) << 4);
   80f48:	e0bffd17 	ldw	r2,-12(fp)
   80f4c:	10800d17 	ldw	r2,52(r2)
   80f50:	108003cc 	andi	r2,r2,15
   80f54:	1004913a 	slli	r2,r2,4
   80f58:	e0bffc15 	stw	r2,-16(fp)
	if (reg_write(ec, 0x59, regv) != 0)
   80f5c:	e13ffe17 	ldw	r4,-8(fp)
   80f60:	01401644 	movi	r5,89
   80f64:	e1bffc17 	ldw	r6,-16(fp)
   80f68:	008af300 	call	8af30 <reg_write>
   80f6c:	1005003a 	cmpeq	r2,r2,zero
   80f70:	1000031e 	bne	r2,zero,80f80 <adv7513_avi_infoframe+0x2a0>
		return -1;
   80f74:	00bfffc4 	movi	r2,-1
   80f78:	e0bfff15 	stw	r2,-4(fp)
   80f7c:	00007606 	br	81158 <adv7513_avi_infoframe+0x478>

	// 0x5a[7:0] <- active line (bar)
	regv = avi->bar.top_e & 0xff;
   80f80:	e0bffd17 	ldw	r2,-12(fp)
   80f84:	10800e17 	ldw	r2,56(r2)
   80f88:	10803fcc 	andi	r2,r2,255
   80f8c:	e0bffc15 	stw	r2,-16(fp)
	if (reg_write(ec, 0x5a, regv) != 0)
   80f90:	e13ffe17 	ldw	r4,-8(fp)
   80f94:	01401684 	movi	r5,90
   80f98:	e1bffc17 	ldw	r6,-16(fp)
   80f9c:	008af300 	call	8af30 <reg_write>
   80fa0:	1005003a 	cmpeq	r2,r2,zero
   80fa4:	1000031e 	bne	r2,zero,80fb4 <adv7513_avi_infoframe+0x2d4>
		return -1;
   80fa8:	00bfffc4 	movi	r2,-1
   80fac:	e0bfff15 	stw	r2,-4(fp)
   80fb0:	00006906 	br	81158 <adv7513_avi_infoframe+0x478>

	// 0x5b[7:0] <- active line (bar)
	regv = (avi->bar.top_e >> 8) & 0xff;
   80fb4:	e0bffd17 	ldw	r2,-12(fp)
   80fb8:	10800e17 	ldw	r2,56(r2)
   80fbc:	1005d23a 	srai	r2,r2,8
   80fc0:	10803fcc 	andi	r2,r2,255
   80fc4:	e0bffc15 	stw	r2,-16(fp)
	if (reg_write(ec, 0x5b, regv) != 0)
   80fc8:	e13ffe17 	ldw	r4,-8(fp)
   80fcc:	014016c4 	movi	r5,91
   80fd0:	e1bffc17 	ldw	r6,-16(fp)
   80fd4:	008af300 	call	8af30 <reg_write>
   80fd8:	1005003a 	cmpeq	r2,r2,zero
   80fdc:	1000031e 	bne	r2,zero,80fec <adv7513_avi_infoframe+0x30c>
		return -1;
   80fe0:	00bfffc4 	movi	r2,-1
   80fe4:	e0bfff15 	stw	r2,-4(fp)
   80fe8:	00005b06 	br	81158 <adv7513_avi_infoframe+0x478>

	// 0x5c[7:0] <- active line (bar)
	regv = avi->bar.bottom_s & 0xff;
   80fec:	e0bffd17 	ldw	r2,-12(fp)
   80ff0:	10800f17 	ldw	r2,60(r2)
   80ff4:	10803fcc 	andi	r2,r2,255
   80ff8:	e0bffc15 	stw	r2,-16(fp)
	if (reg_write(ec, 0x5c, regv) != 0)
   80ffc:	e13ffe17 	ldw	r4,-8(fp)
   81000:	01401704 	movi	r5,92
   81004:	e1bffc17 	ldw	r6,-16(fp)
   81008:	008af300 	call	8af30 <reg_write>
   8100c:	1005003a 	cmpeq	r2,r2,zero
   81010:	1000031e 	bne	r2,zero,81020 <adv7513_avi_infoframe+0x340>
		return -1;
   81014:	00bfffc4 	movi	r2,-1
   81018:	e0bfff15 	stw	r2,-4(fp)
   8101c:	00004e06 	br	81158 <adv7513_avi_infoframe+0x478>

	// 0x5d[7:0] <- active line (bar)
	regv = (avi->bar.bottom_s >> 8) & 0xff;
   81020:	e0bffd17 	ldw	r2,-12(fp)
   81024:	10800f17 	ldw	r2,60(r2)
   81028:	1005d23a 	srai	r2,r2,8
   8102c:	10803fcc 	andi	r2,r2,255
   81030:	e0bffc15 	stw	r2,-16(fp)
	if (reg_write(ec, 0x5d, regv) != 0)
   81034:	e13ffe17 	ldw	r4,-8(fp)
   81038:	01401744 	movi	r5,93
   8103c:	e1bffc17 	ldw	r6,-16(fp)
   81040:	008af300 	call	8af30 <reg_write>
   81044:	1005003a 	cmpeq	r2,r2,zero
   81048:	1000031e 	bne	r2,zero,81058 <adv7513_avi_infoframe+0x378>
		return -1;
   8104c:	00bfffc4 	movi	r2,-1
   81050:	e0bfff15 	stw	r2,-4(fp)
   81054:	00004006 	br	81158 <adv7513_avi_infoframe+0x478>

	// 0x5e[7:0] <- active line (bar)
	regv = avi->bar.left_e & 0xff;
   81058:	e0bffd17 	ldw	r2,-12(fp)
   8105c:	10801017 	ldw	r2,64(r2)
   81060:	10803fcc 	andi	r2,r2,255
   81064:	e0bffc15 	stw	r2,-16(fp)
	if (reg_write(ec, 0x5e, regv) != 0)
   81068:	e13ffe17 	ldw	r4,-8(fp)
   8106c:	01401784 	movi	r5,94
   81070:	e1bffc17 	ldw	r6,-16(fp)
   81074:	008af300 	call	8af30 <reg_write>
   81078:	1005003a 	cmpeq	r2,r2,zero
   8107c:	1000031e 	bne	r2,zero,8108c <adv7513_avi_infoframe+0x3ac>
		return -1;
   81080:	00bfffc4 	movi	r2,-1
   81084:	e0bfff15 	stw	r2,-4(fp)
   81088:	00003306 	br	81158 <adv7513_avi_infoframe+0x478>

	// 0x5f[7:0] <- active line (bar)
	regv = (avi->bar.left_e >> 8) & 0xff;
   8108c:	e0bffd17 	ldw	r2,-12(fp)
   81090:	10801017 	ldw	r2,64(r2)
   81094:	1005d23a 	srai	r2,r2,8
   81098:	10803fcc 	andi	r2,r2,255
   8109c:	e0bffc15 	stw	r2,-16(fp)
	if (reg_write(ec, 0x5f, regv) != 0)
   810a0:	e13ffe17 	ldw	r4,-8(fp)
   810a4:	014017c4 	movi	r5,95
   810a8:	e1bffc17 	ldw	r6,-16(fp)
   810ac:	008af300 	call	8af30 <reg_write>
   810b0:	1005003a 	cmpeq	r2,r2,zero
   810b4:	1000031e 	bne	r2,zero,810c4 <adv7513_avi_infoframe+0x3e4>
		return -1;
   810b8:	00bfffc4 	movi	r2,-1
   810bc:	e0bfff15 	stw	r2,-4(fp)
   810c0:	00002506 	br	81158 <adv7513_avi_infoframe+0x478>

	// 0x60[7:0] <- active line (bar)
	regv = avi->bar.right_s & 0xff;
   810c4:	e0bffd17 	ldw	r2,-12(fp)
   810c8:	10801117 	ldw	r2,68(r2)
   810cc:	10803fcc 	andi	r2,r2,255
   810d0:	e0bffc15 	stw	r2,-16(fp)
	if (reg_write(ec, 0x60, regv) != 0)
   810d4:	e13ffe17 	ldw	r4,-8(fp)
   810d8:	01401804 	movi	r5,96
   810dc:	e1bffc17 	ldw	r6,-16(fp)
   810e0:	008af300 	call	8af30 <reg_write>
   810e4:	1005003a 	cmpeq	r2,r2,zero
   810e8:	1000031e 	bne	r2,zero,810f8 <adv7513_avi_infoframe+0x418>
		return -1;
   810ec:	00bfffc4 	movi	r2,-1
   810f0:	e0bfff15 	stw	r2,-4(fp)
   810f4:	00001806 	br	81158 <adv7513_avi_infoframe+0x478>

	// 0x61[7:0] <- active line (bar)
	regv = (avi->bar.right_s >> 8) & 0xff;
   810f8:	e0bffd17 	ldw	r2,-12(fp)
   810fc:	10801117 	ldw	r2,68(r2)
   81100:	1005d23a 	srai	r2,r2,8
   81104:	10803fcc 	andi	r2,r2,255
   81108:	e0bffc15 	stw	r2,-16(fp)
	if (reg_write(ec, 0x61, regv) != 0)
   8110c:	e13ffe17 	ldw	r4,-8(fp)
   81110:	01401844 	movi	r5,97
   81114:	e1bffc17 	ldw	r6,-16(fp)
   81118:	008af300 	call	8af30 <reg_write>
   8111c:	1005003a 	cmpeq	r2,r2,zero
   81120:	1000031e 	bne	r2,zero,81130 <adv7513_avi_infoframe+0x450>
		return -1;
   81124:	00bfffc4 	movi	r2,-1
   81128:	e0bfff15 	stw	r2,-4(fp)
   8112c:	00000a06 	br	81158 <adv7513_avi_infoframe+0x478>

	// 0x4a[7] <- auto checksum
	// 0x4a[6] avi infoframe packet update 0)locked-by-packet_buffer 1)locked-by-i2c
	// 0x4a[5] audio infoframe packet update 0)locked-by-packet_buffer 1)locked-by-i2c
	// 0x4a[4] gc packet update 0)locked-by-packet_buffer 1)locked-by-i2c
	if (reg_clear_bits(ec, 0x4a, 0x40) != 0)
   81130:	e13ffe17 	ldw	r4,-8(fp)
   81134:	01401284 	movi	r5,74
   81138:	01801004 	movi	r6,64
   8113c:	008b2000 	call	8b200 <reg_clear_bits>
   81140:	1005003a 	cmpeq	r2,r2,zero
   81144:	1000031e 	bne	r2,zero,81154 <adv7513_avi_infoframe+0x474>
		return -1;
   81148:	00bfffc4 	movi	r2,-1
   8114c:	e0bfff15 	stw	r2,-4(fp)
   81150:	00000106 	br	81158 <adv7513_avi_infoframe+0x478>

	return 0;
   81154:	e03fff15 	stw	zero,-4(fp)
   81158:	e0bfff17 	ldw	r2,-4(fp)
}
   8115c:	e037883a 	mov	sp,fp
   81160:	dfc00117 	ldw	ra,4(sp)
   81164:	df000017 	ldw	fp,0(sp)
   81168:	dec00204 	addi	sp,sp,8
   8116c:	f800283a 	ret

00081170 <adv7513_video_in_format_3d>:
// depth       - adv7513_input_color_depth
// color_space - adv7513_input_color_space
// style       - adv7513_input_style
// vic		   - adv7513_vic
static int adv7513_video_in_format_3d(struct hdmi_encoder *ec, int id, int depth, int color_space, int style, int vic)
{
   81170:	defff704 	addi	sp,sp,-36
   81174:	de00012e 	bgeu	sp,et,8117c <adv7513_video_in_format_3d+0xc>
   81178:	003da0fa 	break	3
   8117c:	dfc00815 	stw	ra,32(sp)
   81180:	df000715 	stw	fp,28(sp)
   81184:	df000704 	addi	fp,sp,28
   81188:	e13ffb15 	stw	r4,-20(fp)
   8118c:	e17ffc15 	stw	r5,-16(fp)
   81190:	e1bffd15 	stw	r6,-12(fp)
   81194:	e1fffe15 	stw	r7,-8(fp)
	int aspect;

	//printf("adv7513_video_in_format_3d()\n");

	// 0x15[3:0] <- id
	if (reg_update_bits(ec, 0x15, 0x0f, id) != 0)
   81198:	e13ffb17 	ldw	r4,-20(fp)
   8119c:	01400544 	movi	r5,21
   811a0:	018003c4 	movi	r6,15
   811a4:	e1fffc17 	ldw	r7,-16(fp)
   811a8:	008afc80 	call	8afc8 <reg_update_bits>
   811ac:	1005003a 	cmpeq	r2,r2,zero
   811b0:	1000031e 	bne	r2,zero,811c0 <adv7513_video_in_format_3d+0x50>
		return -1;
   811b4:	00bfffc4 	movi	r2,-1
   811b8:	e0bfff15 	stw	r2,-4(fp)
   811bc:	00004c06 	br	812f0 <adv7513_video_in_format_3d+0x180>

	// 0x16[5:4] <- depth
	// 0x16[3:2] <- style
	// 0x16[0] <- color_space
	regv = ((depth & 0x03) << 4) | ((style & 0x03) << 2) | (color_space & 0x01);
   811c0:	e0bffd17 	ldw	r2,-12(fp)
   811c4:	108000cc 	andi	r2,r2,3
   811c8:	1006913a 	slli	r3,r2,4
   811cc:	e0800217 	ldw	r2,8(fp)
   811d0:	108000cc 	andi	r2,r2,3
   811d4:	1085883a 	add	r2,r2,r2
   811d8:	1085883a 	add	r2,r2,r2
   811dc:	1886b03a 	or	r3,r3,r2
   811e0:	e0bffe17 	ldw	r2,-8(fp)
   811e4:	1080004c 	andi	r2,r2,1
   811e8:	1884b03a 	or	r2,r3,r2
   811ec:	e0bffa15 	stw	r2,-24(fp)
	if (reg_update_bits(ec, 0x16, 0x3d, regv) != 0)
   811f0:	e13ffb17 	ldw	r4,-20(fp)
   811f4:	01400584 	movi	r5,22
   811f8:	01800f44 	movi	r6,61
   811fc:	e1fffa17 	ldw	r7,-24(fp)
   81200:	008afc80 	call	8afc8 <reg_update_bits>
   81204:	1005003a 	cmpeq	r2,r2,zero
   81208:	1000031e 	bne	r2,zero,81218 <adv7513_video_in_format_3d+0xa8>
		return -1;
   8120c:	00bfffc4 	movi	r2,-1
   81210:	e0bfff15 	stw	r2,-4(fp)
   81214:	00003606 	br	812f0 <adv7513_video_in_format_3d+0x180>

	switch (vic) {
   81218:	e0800317 	ldw	r2,12(fp)
   8121c:	10800668 	cmpgeui	r2,r2,25
   81220:	1000251e 	bne	r2,zero,812b8 <adv7513_video_in_format_3d+0x148>
   81224:	e0800317 	ldw	r2,12(fp)
   81228:	1085883a 	add	r2,r2,r2
   8122c:	1087883a 	add	r3,r2,r2
   81230:	00800234 	movhi	r2,8
   81234:	10849104 	addi	r2,r2,4676
   81238:	1885883a 	add	r2,r3,r2
   8123c:	10800017 	ldw	r2,0(r2)
   81240:	1000683a 	jmp	r2
   81244:	000812b8 	rdprs	zero,zero,8266
   81248:	000812a8 	cmpgeui	zero,zero,8266
   8124c:	000812a8 	cmpgeui	zero,zero,8266
   81250:	000812b0 	cmpltui	zero,zero,8266
   81254:	000812b0 	cmpltui	zero,zero,8266
   81258:	000812b0 	cmpltui	zero,zero,8266
   8125c:	000812a8 	cmpgeui	zero,zero,8266
   81260:	000812b0 	cmpltui	zero,zero,8266
   81264:	000812a8 	cmpgeui	zero,zero,8266
   81268:	000812b0 	cmpltui	zero,zero,8266
   8126c:	000812a8 	cmpgeui	zero,zero,8266
   81270:	000812b0 	cmpltui	zero,zero,8266
   81274:	000812a8 	cmpgeui	zero,zero,8266
   81278:	000812b0 	cmpltui	zero,zero,8266
   8127c:	000812a8 	cmpgeui	zero,zero,8266
   81280:	000812b0 	cmpltui	zero,zero,8266
   81284:	000812b0 	cmpltui	zero,zero,8266
   81288:	000812a8 	cmpgeui	zero,zero,8266
   8128c:	000812b0 	cmpltui	zero,zero,8266
   81290:	000812b0 	cmpltui	zero,zero,8266
   81294:	000812b0 	cmpltui	zero,zero,8266
   81298:	000812a8 	cmpgeui	zero,zero,8266
   8129c:	000812b0 	cmpltui	zero,zero,8266
   812a0:	000812a8 	cmpgeui	zero,zero,8266
   812a4:	000812b0 	cmpltui	zero,zero,8266
	case ADV7513_VIC_240p60x8_4_3:	// (2880)x240p 60Hz
	case ADV7513_VIC_480p60x2_4_3:	// 1440x480p 60Hz
	case ADV7513_VIC_576p50_4_3:	// 720x576p 50Hz
	case ADV7513_VIC_576i50x2_4_3:	// 720(1440)x576i 50Hz
	case ADV7513_VIC_288p50x2_4_3:	// 720(1440)x288p 50Hz
		aspect = ADV7513_INPUT_ASPECT_4V3;
   812a8:	e03ff915 	stw	zero,-28(fp)
		break;
   812ac:	00000206 	br	812b8 <adv7513_video_in_format_3d+0x148>
	case ADV7513_VIC_576p50_16_9:	// 720x576p 50Hz
	case ADV7513_VIC_720p50_16_9:	// 1280x720p 50Hz
	case ADV7513_VIC_1080i50_16_9:	// 1920x1080i 50Hz
	case ADV7513_VIC_576i50x2_16_9:	// 720(1440)x576i 50Hz
	case ADV7513_VIC_288p50x2_16_9:	// 720(1440)x288p 50Hz
		aspect = ADV7513_INPUT_ASPECT_16V9;
   812b0:	00800044 	movi	r2,1
   812b4:	e0bff915 	stw	r2,-28(fp)
		break;
	}

	// 0x17[1] <- aspect
	if (reg_update_bits(ec, 0x17, 0x02, (aspect & 0x01) << 1) != 0)
   812b8:	e0bff917 	ldw	r2,-28(fp)
   812bc:	1080004c 	andi	r2,r2,1
   812c0:	1085883a 	add	r2,r2,r2
   812c4:	100f883a 	mov	r7,r2
   812c8:	e13ffb17 	ldw	r4,-20(fp)
   812cc:	014005c4 	movi	r5,23
   812d0:	01800084 	movi	r6,2
   812d4:	008afc80 	call	8afc8 <reg_update_bits>
   812d8:	1005003a 	cmpeq	r2,r2,zero
   812dc:	1000031e 	bne	r2,zero,812ec <adv7513_video_in_format_3d+0x17c>
		return -1;
   812e0:	00bfffc4 	movi	r2,-1
   812e4:	e0bfff15 	stw	r2,-4(fp)
   812e8:	00000106 	br	812f0 <adv7513_video_in_format_3d+0x180>

	return 0;
   812ec:	e03fff15 	stw	zero,-4(fp)
   812f0:	e0bfff17 	ldw	r2,-4(fp)
}
   812f4:	e037883a 	mov	sp,fp
   812f8:	dfc00117 	ldw	ra,4(sp)
   812fc:	df000017 	ldw	fp,0(sp)
   81300:	dec00204 	addi	sp,sp,8
   81304:	f800283a 	ret

00081308 <adv7513_avi_infoframe_3d>:
//
// vic		   - adv7513_vic
//
// 0x52 ~ 0x71
static int adv7513_avi_infoframe_3d(struct hdmi_encoder *ec, int vic)
{
   81308:	defff904 	addi	sp,sp,-28
   8130c:	de00012e 	bgeu	sp,et,81314 <adv7513_avi_infoframe_3d+0xc>
   81310:	003da0fa 	break	3
   81314:	dfc00615 	stw	ra,24(sp)
   81318:	df000515 	stw	fp,20(sp)
   8131c:	df000504 	addi	fp,sp,20
   81320:	e13ffd15 	stw	r4,-12(fp)
   81324:	e17ffe15 	stw	r5,-8(fp)
	struct avi_infoframe *avi = &ec->avi_if;
   81328:	e0bffd17 	ldw	r2,-12(fp)
   8132c:	10800904 	addi	r2,r2,36
   81330:	e0bffc15 	stw	r2,-16(fp)
	int regv;

	//printf("adv7513_avi_infoframe_3d()\n");

#if 1  // local development defaults
	avi->scan_info = 2;  		// scan
   81334:	e0fffc17 	ldw	r3,-16(fp)
   81338:	00800084 	movi	r2,2
   8133c:	18800015 	stw	r2,0(r3)
	avi->rgb_ycbcr = 0;			// rgb or ycbcr
   81340:	e0bffc17 	ldw	r2,-16(fp)
   81344:	10000315 	stw	zero,12(r2)
	//avi->f7 = 0;				// reserved
	avi->active_fmt = 1;		// active format r3r0 valid
   81348:	e0fffc17 	ldw	r3,-16(fp)
   8134c:	00800044 	movi	r2,1
   81350:	18800215 	stw	r2,8(r3)

	avi->colorimetry = 0;		// colorimetry
   81354:	e0bffc17 	ldw	r2,-16(fp)
   81358:	10000615 	stw	zero,24(r2)
	avi->colorimetry_ext = 0;	// extended colorimetry
   8135c:	e0bffc17 	ldw	r2,-16(fp)
   81360:	10000915 	stw	zero,36(r2)
	avi->scaling = 0;			// non-uniform scaling
   81364:	e0bffc17 	ldw	r2,-16(fp)
   81368:	10000715 	stw	zero,28(r2)
	avi->quant = 0;				// rgb quantization range
   8136c:	e0bffc17 	ldw	r2,-16(fp)
   81370:	10000815 	stw	zero,32(r2)
	avi->itc = 0;				// it content
   81374:	e0bffc17 	ldw	r2,-16(fp)
   81378:	10000a15 	stw	zero,40(r2)
	avi->pr = 1;				// pixel repetition factor 0)no 1)2x 2)3x 3)4x ...
   8137c:	e0fffc17 	ldw	r3,-16(fp)
   81380:	00800044 	movi	r2,1
   81384:	18800c15 	stw	r2,48(r3)
	avi->vic = vic;				// video identification code
   81388:	e0fffc17 	ldw	r3,-16(fp)
   8138c:	e0bffe17 	ldw	r2,-8(fp)
   81390:	18800b15 	stw	r2,44(r3)
	avi->yq1yq0 = 0;			// ??
   81394:	e0bffc17 	ldw	r2,-16(fp)
   81398:	10000d15 	stw	zero,52(r2)

	avi->bar_info = 0;  		// bar fields valid
   8139c:	e0bffc17 	ldw	r2,-16(fp)
   813a0:	10000115 	stw	zero,4(r2)
	avi->bar.top_e = 0;
   813a4:	e0bffc17 	ldw	r2,-16(fp)
   813a8:	10000e15 	stw	zero,56(r2)
	avi->bar.bottom_s = 0;
   813ac:	e0bffc17 	ldw	r2,-16(fp)
   813b0:	10000f15 	stw	zero,60(r2)
	avi->bar.left_e = 0;
   813b4:	e0bffc17 	ldw	r2,-16(fp)
   813b8:	10001015 	stw	zero,64(r2)
	avi->bar.right_s = 0;
   813bc:	e0bffc17 	ldw	r2,-16(fp)
   813c0:	10001115 	stw	zero,68(r2)

	avi->active_fmt_ar = 8;		// active format aspect ratio (same as pict_ar)
   813c4:	e0fffc17 	ldw	r3,-16(fp)
   813c8:	00800204 	movi	r2,8
   813cc:	18800415 	stw	r2,16(r3)

	switch (vic) {
   813d0:	e0bffe17 	ldw	r2,-8(fp)
   813d4:	10800668 	cmpgeui	r2,r2,25
   813d8:	1000281e 	bne	r2,zero,8147c <adv7513_avi_infoframe_3d+0x174>
   813dc:	e0bffe17 	ldw	r2,-8(fp)
   813e0:	1085883a 	add	r2,r2,r2
   813e4:	1087883a 	add	r3,r2,r2
   813e8:	00800234 	movhi	r2,8
   813ec:	1084ff04 	addi	r2,r2,5116
   813f0:	1885883a 	add	r2,r3,r2
   813f4:	10800017 	ldw	r2,0(r2)
   813f8:	1000683a 	jmp	r2
   813fc:	0008147c 	xorhi	zero,zero,8273
   81400:	00081460 	cmpeqi	zero,zero,8273
   81404:	00081460 	cmpeqi	zero,zero,8273
   81408:	00081470 	cmpltui	zero,zero,8273
   8140c:	00081470 	cmpltui	zero,zero,8273
   81410:	00081470 	cmpltui	zero,zero,8273
   81414:	00081460 	cmpeqi	zero,zero,8273
   81418:	00081470 	cmpltui	zero,zero,8273
   8141c:	00081460 	cmpeqi	zero,zero,8273
   81420:	00081470 	cmpltui	zero,zero,8273
   81424:	00081460 	cmpeqi	zero,zero,8273
   81428:	00081470 	cmpltui	zero,zero,8273
   8142c:	00081460 	cmpeqi	zero,zero,8273
   81430:	00081470 	cmpltui	zero,zero,8273
   81434:	00081460 	cmpeqi	zero,zero,8273
   81438:	00081470 	cmpltui	zero,zero,8273
   8143c:	00081470 	cmpltui	zero,zero,8273
   81440:	00081460 	cmpeqi	zero,zero,8273
   81444:	00081470 	cmpltui	zero,zero,8273
   81448:	00081470 	cmpltui	zero,zero,8273
   8144c:	00081470 	cmpltui	zero,zero,8273
   81450:	00081460 	cmpeqi	zero,zero,8273
   81454:	00081470 	cmpltui	zero,zero,8273
   81458:	00081460 	cmpeqi	zero,zero,8273
   8145c:	00081470 	cmpltui	zero,zero,8273
	case ADV7513_VIC_240p60x8_4_3:	// (2880)x240p 60Hz
	case ADV7513_VIC_480p60x2_4_3:	// 1440x480p 60Hz
	case ADV7513_VIC_576p50_4_3:	// 720x576p 50Hz
	case ADV7513_VIC_576i50x2_4_3:	// 720(1440)x576i 50Hz
	case ADV7513_VIC_288p50x2_4_3:	// 720(1440)x288p 50Hz
		avi->pict_ar = 1;			// picture aspect ratio (4:3)
   81460:	e0fffc17 	ldw	r3,-16(fp)
   81464:	00800044 	movi	r2,1
   81468:	18800515 	stw	r2,20(r3)
		break;
   8146c:	00000306 	br	8147c <adv7513_avi_infoframe_3d+0x174>
	case ADV7513_VIC_576p50_16_9:	// 720x576p 50Hz
	case ADV7513_VIC_720p50_16_9:	// 1280x720p 50Hz
	case ADV7513_VIC_1080i50_16_9:	// 1920x1080i 50Hz
	case ADV7513_VIC_576i50x2_16_9:	// 720(1440)x576i 50Hz
	case ADV7513_VIC_288p50x2_16_9:	// 720(1440)x288p 50Hz
		avi->pict_ar = 2;			// picture aspect ratio (16:9)
   81470:	e0fffc17 	ldw	r3,-16(fp)
   81474:	00800084 	movi	r2,2
   81478:	18800515 	stw	r2,20(r3)
	//   0x55[6:5]
	//   0x56[5:4]

	// 0x44[4] avi infoframe enable 0)disable 1)enable
	// 0x44[3] audio infoframe enable 0)disable 1)enable
	if (reg_update_bits(ec, 0x44, 0x10, 1 << 4) != 0)
   8147c:	e13ffd17 	ldw	r4,-12(fp)
   81480:	01401104 	movi	r5,68
   81484:	01800404 	movi	r6,16
   81488:	01c00404 	movi	r7,16
   8148c:	008afc80 	call	8afc8 <reg_update_bits>
   81490:	1005003a 	cmpeq	r2,r2,zero
   81494:	1000031e 	bne	r2,zero,814a4 <adv7513_avi_infoframe_3d+0x19c>
		return -1;
   81498:	00bfffc4 	movi	r2,-1
   8149c:	e0bfff15 	stw	r2,-4(fp)
   814a0:	0000e006 	br	81824 <adv7513_avi_infoframe_3d+0x51c>

	// 0x4a[7] <- auto checksum
	// 0x4a[6] avi infoframe packet update 0)locked-by-packet_buffer 1)locked-by-i2c
	// 0x4a[5] audio infoframe packet update 0)locked-by-packet_buffer 1)locked-by-i2c
	// 0x4a[4] gc packet update 0)locked-by-packet_buffer 1)locked-by-i2c
	if (reg_update_bits(ec, 0x4a, 0xc0, 3 << 6) != 0)
   814a4:	e13ffd17 	ldw	r4,-12(fp)
   814a8:	01401284 	movi	r5,74
   814ac:	01803004 	movi	r6,192
   814b0:	01c03004 	movi	r7,192
   814b4:	008afc80 	call	8afc8 <reg_update_bits>
   814b8:	1005003a 	cmpeq	r2,r2,zero
   814bc:	1000031e 	bne	r2,zero,814cc <adv7513_avi_infoframe_3d+0x1c4>
		return -1;
   814c0:	00bfffc4 	movi	r2,-1
   814c4:	e0bfff15 	stw	r2,-4(fp)
   814c8:	0000d606 	br	81824 <adv7513_avi_infoframe_3d+0x51c>

	// 0x55[6:5] <- output format 0)rgb 1)ycbcr422 2)ycbcr444
	// 0x55[4]   <- active format indicator 0)no-data 1)valid (bar, scan, colorimetry, non-uniform-scaling, active-aspect-ratio)
	// 0x55[3:2] <- bar 0)invalid-bar 1)vertical 2)horizontal 3)both
	// 0x55[1:0] <- scan 0)no-data 1)tv 2)pc 3)none
	regv = ((avi->rgb_ycbcr & 0x03) << 5) | ((avi->active_fmt & 0x01) << 4) | ((avi->bar_info & 0x03) << 2) | ((avi->scan_info & 0x03) << 0);
   814cc:	e0bffc17 	ldw	r2,-16(fp)
   814d0:	10800317 	ldw	r2,12(r2)
   814d4:	108000cc 	andi	r2,r2,3
   814d8:	1006917a 	slli	r3,r2,5
   814dc:	e0bffc17 	ldw	r2,-16(fp)
   814e0:	10800217 	ldw	r2,8(r2)
   814e4:	1080004c 	andi	r2,r2,1
   814e8:	1004913a 	slli	r2,r2,4
   814ec:	1886b03a 	or	r3,r3,r2
   814f0:	e0bffc17 	ldw	r2,-16(fp)
   814f4:	10800117 	ldw	r2,4(r2)
   814f8:	108000cc 	andi	r2,r2,3
   814fc:	1085883a 	add	r2,r2,r2
   81500:	1085883a 	add	r2,r2,r2
   81504:	1886b03a 	or	r3,r3,r2
   81508:	e0bffc17 	ldw	r2,-16(fp)
   8150c:	10800017 	ldw	r2,0(r2)
   81510:	108000cc 	andi	r2,r2,3
   81514:	1884b03a 	or	r2,r3,r2
   81518:	e0bffb15 	stw	r2,-20(fp)
	if (reg_update_bits(ec, 0x55, 0x70, regv) != 0)
   8151c:	e13ffd17 	ldw	r4,-12(fp)
   81520:	01401544 	movi	r5,85
   81524:	01801c04 	movi	r6,112
   81528:	e1fffb17 	ldw	r7,-20(fp)
   8152c:	008afc80 	call	8afc8 <reg_update_bits>
   81530:	1005003a 	cmpeq	r2,r2,zero
   81534:	1000031e 	bne	r2,zero,81544 <adv7513_avi_infoframe_3d+0x23c>
		return -1;
   81538:	00bfffc4 	movi	r2,-1
   8153c:	e0bfff15 	stw	r2,-4(fp)
   81540:	0000b806 	br	81824 <adv7513_avi_infoframe_3d+0x51c>

	// 0x56[7:6] <- colorimetry 0)no-data 1)ITU601 2)ITU709 3)extended <- 0x57[6:4]
	// 0x56[5:4] <- picture aspect ratio 0)no-data 1)4:3 2)16:9 3)none
	// 0x56[3:0] <- active aspect ratio 8)same as 0x56[5:4] 9)4:3 10)16:0 11)14:9
	regv = ((avi->colorimetry & 0x03) << 6) | ((avi->pict_ar & 0x03) << 4) | ((avi->active_fmt_ar & 0x0f) << 0);
   81544:	e0bffc17 	ldw	r2,-16(fp)
   81548:	10800617 	ldw	r2,24(r2)
   8154c:	108000cc 	andi	r2,r2,3
   81550:	100691ba 	slli	r3,r2,6
   81554:	e0bffc17 	ldw	r2,-16(fp)
   81558:	10800517 	ldw	r2,20(r2)
   8155c:	108000cc 	andi	r2,r2,3
   81560:	1004913a 	slli	r2,r2,4
   81564:	1886b03a 	or	r3,r3,r2
   81568:	e0bffc17 	ldw	r2,-16(fp)
   8156c:	10800417 	ldw	r2,16(r2)
   81570:	108003cc 	andi	r2,r2,15
   81574:	1884b03a 	or	r2,r3,r2
   81578:	e0bffb15 	stw	r2,-20(fp)
	if (reg_write(ec, 0x56, regv) != 0)
   8157c:	e13ffd17 	ldw	r4,-12(fp)
   81580:	01401584 	movi	r5,86
   81584:	e1bffb17 	ldw	r6,-20(fp)
   81588:	008af300 	call	8af30 <reg_write>
   8158c:	1005003a 	cmpeq	r2,r2,zero
   81590:	1000031e 	bne	r2,zero,815a0 <adv7513_avi_infoframe_3d+0x298>
		return -1;
   81594:	00bfffc4 	movi	r2,-1
   81598:	e0bfff15 	stw	r2,-4(fp)
   8159c:	0000a106 	br	81824 <adv7513_avi_infoframe_3d+0x51c>

	// 0x57[7] <- itc 0)none 1)available in 0x59[5:4]
	// 0x57[6:4] <- extended colorimetry 0)xvYCC601 1)xvYCC701 2)sYCC601 3)AdobeYCC601 4)AdobeRGB
	// 0x57[3:2] <- rgb quantization range 0)default 1)limited 2)full 11)reserved
	// 0x57[1:0] <- non-uniform picture scaling 0)unknown 1)h-scaling 2) v-scaling 3)h/v scaling
	regv = ((avi->itc & 0x01) << 7) | ((avi->colorimetry_ext & 0x07) << 4) | ((avi->quant & 0x03) << 2) | ((avi->scaling & 0x03) << 0);
   815a0:	e0bffc17 	ldw	r2,-16(fp)
   815a4:	10800a17 	ldw	r2,40(r2)
   815a8:	1080004c 	andi	r2,r2,1
   815ac:	100691fa 	slli	r3,r2,7
   815b0:	e0bffc17 	ldw	r2,-16(fp)
   815b4:	10800917 	ldw	r2,36(r2)
   815b8:	108001cc 	andi	r2,r2,7
   815bc:	1004913a 	slli	r2,r2,4
   815c0:	1886b03a 	or	r3,r3,r2
   815c4:	e0bffc17 	ldw	r2,-16(fp)
   815c8:	10800817 	ldw	r2,32(r2)
   815cc:	108000cc 	andi	r2,r2,3
   815d0:	1085883a 	add	r2,r2,r2
   815d4:	1085883a 	add	r2,r2,r2
   815d8:	1886b03a 	or	r3,r3,r2
   815dc:	e0bffc17 	ldw	r2,-16(fp)
   815e0:	10800717 	ldw	r2,28(r2)
   815e4:	108000cc 	andi	r2,r2,3
   815e8:	1884b03a 	or	r2,r3,r2
   815ec:	e0bffb15 	stw	r2,-20(fp)
	if (reg_write(ec, 0x57, regv) != 0)
   815f0:	e13ffd17 	ldw	r4,-12(fp)
   815f4:	014015c4 	movi	r5,87
   815f8:	e1bffb17 	ldw	r6,-20(fp)
   815fc:	008af300 	call	8af30 <reg_write>
   81600:	1005003a 	cmpeq	r2,r2,zero
   81604:	1000031e 	bne	r2,zero,81614 <adv7513_avi_infoframe_3d+0x30c>
		return -1;
   81608:	00bfffc4 	movi	r2,-1
   8160c:	e0bfff15 	stw	r2,-4(fp)
   81610:	00008406 	br	81824 <adv7513_avi_infoframe_3d+0x51c>

	// 0x59[7:4] <- extended colorimetry 0)xvYCC601 1)xvYCC701 2)sYCC601 3)AdobeYCC601 4)AdobeRGB
	regv = ((avi->yq1yq0 & 0x0f) << 4);
   81614:	e0bffc17 	ldw	r2,-16(fp)
   81618:	10800d17 	ldw	r2,52(r2)
   8161c:	108003cc 	andi	r2,r2,15
   81620:	1004913a 	slli	r2,r2,4
   81624:	e0bffb15 	stw	r2,-20(fp)
	if (reg_write(ec, 0x59, regv) != 0)
   81628:	e13ffd17 	ldw	r4,-12(fp)
   8162c:	01401644 	movi	r5,89
   81630:	e1bffb17 	ldw	r6,-20(fp)
   81634:	008af300 	call	8af30 <reg_write>
   81638:	1005003a 	cmpeq	r2,r2,zero
   8163c:	1000031e 	bne	r2,zero,8164c <adv7513_avi_infoframe_3d+0x344>
		return -1;
   81640:	00bfffc4 	movi	r2,-1
   81644:	e0bfff15 	stw	r2,-4(fp)
   81648:	00007606 	br	81824 <adv7513_avi_infoframe_3d+0x51c>

	// 0x5a[7:0] <- active line (bar)
	regv = avi->bar.top_e & 0xff;
   8164c:	e0bffc17 	ldw	r2,-16(fp)
   81650:	10800e17 	ldw	r2,56(r2)
   81654:	10803fcc 	andi	r2,r2,255
   81658:	e0bffb15 	stw	r2,-20(fp)
	if (reg_write(ec, 0x5a, regv) != 0)
   8165c:	e13ffd17 	ldw	r4,-12(fp)
   81660:	01401684 	movi	r5,90
   81664:	e1bffb17 	ldw	r6,-20(fp)
   81668:	008af300 	call	8af30 <reg_write>
   8166c:	1005003a 	cmpeq	r2,r2,zero
   81670:	1000031e 	bne	r2,zero,81680 <adv7513_avi_infoframe_3d+0x378>
		return -1;
   81674:	00bfffc4 	movi	r2,-1
   81678:	e0bfff15 	stw	r2,-4(fp)
   8167c:	00006906 	br	81824 <adv7513_avi_infoframe_3d+0x51c>

	// 0x5b[7:0] <- active line (bar)
	regv = (avi->bar.top_e >> 8) & 0xff;
   81680:	e0bffc17 	ldw	r2,-16(fp)
   81684:	10800e17 	ldw	r2,56(r2)
   81688:	1005d23a 	srai	r2,r2,8
   8168c:	10803fcc 	andi	r2,r2,255
   81690:	e0bffb15 	stw	r2,-20(fp)
	if (reg_write(ec, 0x5b, regv) != 0)
   81694:	e13ffd17 	ldw	r4,-12(fp)
   81698:	014016c4 	movi	r5,91
   8169c:	e1bffb17 	ldw	r6,-20(fp)
   816a0:	008af300 	call	8af30 <reg_write>
   816a4:	1005003a 	cmpeq	r2,r2,zero
   816a8:	1000031e 	bne	r2,zero,816b8 <adv7513_avi_infoframe_3d+0x3b0>
		return -1;
   816ac:	00bfffc4 	movi	r2,-1
   816b0:	e0bfff15 	stw	r2,-4(fp)
   816b4:	00005b06 	br	81824 <adv7513_avi_infoframe_3d+0x51c>

	// 0x5c[7:0] <- active line (bar)
	regv = avi->bar.bottom_s & 0xff;
   816b8:	e0bffc17 	ldw	r2,-16(fp)
   816bc:	10800f17 	ldw	r2,60(r2)
   816c0:	10803fcc 	andi	r2,r2,255
   816c4:	e0bffb15 	stw	r2,-20(fp)
	if (reg_write(ec, 0x5c, regv) != 0)
   816c8:	e13ffd17 	ldw	r4,-12(fp)
   816cc:	01401704 	movi	r5,92
   816d0:	e1bffb17 	ldw	r6,-20(fp)
   816d4:	008af300 	call	8af30 <reg_write>
   816d8:	1005003a 	cmpeq	r2,r2,zero
   816dc:	1000031e 	bne	r2,zero,816ec <adv7513_avi_infoframe_3d+0x3e4>
		return -1;
   816e0:	00bfffc4 	movi	r2,-1
   816e4:	e0bfff15 	stw	r2,-4(fp)
   816e8:	00004e06 	br	81824 <adv7513_avi_infoframe_3d+0x51c>

	// 0x5d[7:0] <- active line (bar)
	regv = (avi->bar.bottom_s >> 8) & 0xff;
   816ec:	e0bffc17 	ldw	r2,-16(fp)
   816f0:	10800f17 	ldw	r2,60(r2)
   816f4:	1005d23a 	srai	r2,r2,8
   816f8:	10803fcc 	andi	r2,r2,255
   816fc:	e0bffb15 	stw	r2,-20(fp)
	if (reg_write(ec, 0x5d, regv) != 0)
   81700:	e13ffd17 	ldw	r4,-12(fp)
   81704:	01401744 	movi	r5,93
   81708:	e1bffb17 	ldw	r6,-20(fp)
   8170c:	008af300 	call	8af30 <reg_write>
   81710:	1005003a 	cmpeq	r2,r2,zero
   81714:	1000031e 	bne	r2,zero,81724 <adv7513_avi_infoframe_3d+0x41c>
		return -1;
   81718:	00bfffc4 	movi	r2,-1
   8171c:	e0bfff15 	stw	r2,-4(fp)
   81720:	00004006 	br	81824 <adv7513_avi_infoframe_3d+0x51c>

	// 0x5e[7:0] <- active line (bar)
	regv = avi->bar.left_e & 0xff;
   81724:	e0bffc17 	ldw	r2,-16(fp)
   81728:	10801017 	ldw	r2,64(r2)
   8172c:	10803fcc 	andi	r2,r2,255
   81730:	e0bffb15 	stw	r2,-20(fp)
	if (reg_write(ec, 0x5e, regv) != 0)
   81734:	e13ffd17 	ldw	r4,-12(fp)
   81738:	01401784 	movi	r5,94
   8173c:	e1bffb17 	ldw	r6,-20(fp)
   81740:	008af300 	call	8af30 <reg_write>
   81744:	1005003a 	cmpeq	r2,r2,zero
   81748:	1000031e 	bne	r2,zero,81758 <adv7513_avi_infoframe_3d+0x450>
		return -1;
   8174c:	00bfffc4 	movi	r2,-1
   81750:	e0bfff15 	stw	r2,-4(fp)
   81754:	00003306 	br	81824 <adv7513_avi_infoframe_3d+0x51c>

	// 0x5f[7:0] <- active line (bar)
	regv = (avi->bar.left_e >> 8) & 0xff;
   81758:	e0bffc17 	ldw	r2,-16(fp)
   8175c:	10801017 	ldw	r2,64(r2)
   81760:	1005d23a 	srai	r2,r2,8
   81764:	10803fcc 	andi	r2,r2,255
   81768:	e0bffb15 	stw	r2,-20(fp)
	if (reg_write(ec, 0x5f, regv) != 0)
   8176c:	e13ffd17 	ldw	r4,-12(fp)
   81770:	014017c4 	movi	r5,95
   81774:	e1bffb17 	ldw	r6,-20(fp)
   81778:	008af300 	call	8af30 <reg_write>
   8177c:	1005003a 	cmpeq	r2,r2,zero
   81780:	1000031e 	bne	r2,zero,81790 <adv7513_avi_infoframe_3d+0x488>
		return -1;
   81784:	00bfffc4 	movi	r2,-1
   81788:	e0bfff15 	stw	r2,-4(fp)
   8178c:	00002506 	br	81824 <adv7513_avi_infoframe_3d+0x51c>

	// 0x60[7:0] <- active line (bar)
	regv = avi->bar.right_s & 0xff;
   81790:	e0bffc17 	ldw	r2,-16(fp)
   81794:	10801117 	ldw	r2,68(r2)
   81798:	10803fcc 	andi	r2,r2,255
   8179c:	e0bffb15 	stw	r2,-20(fp)
	if (reg_write(ec, 0x60, regv) != 0)
   817a0:	e13ffd17 	ldw	r4,-12(fp)
   817a4:	01401804 	movi	r5,96
   817a8:	e1bffb17 	ldw	r6,-20(fp)
   817ac:	008af300 	call	8af30 <reg_write>
   817b0:	1005003a 	cmpeq	r2,r2,zero
   817b4:	1000031e 	bne	r2,zero,817c4 <adv7513_avi_infoframe_3d+0x4bc>
		return -1;
   817b8:	00bfffc4 	movi	r2,-1
   817bc:	e0bfff15 	stw	r2,-4(fp)
   817c0:	00001806 	br	81824 <adv7513_avi_infoframe_3d+0x51c>

	// 0x61[7:0] <- active line (bar)
	regv = (avi->bar.right_s >> 8) & 0xff;
   817c4:	e0bffc17 	ldw	r2,-16(fp)
   817c8:	10801117 	ldw	r2,68(r2)
   817cc:	1005d23a 	srai	r2,r2,8
   817d0:	10803fcc 	andi	r2,r2,255
   817d4:	e0bffb15 	stw	r2,-20(fp)
	if (reg_write(ec, 0x61, regv) != 0)
   817d8:	e13ffd17 	ldw	r4,-12(fp)
   817dc:	01401844 	movi	r5,97
   817e0:	e1bffb17 	ldw	r6,-20(fp)
   817e4:	008af300 	call	8af30 <reg_write>
   817e8:	1005003a 	cmpeq	r2,r2,zero
   817ec:	1000031e 	bne	r2,zero,817fc <adv7513_avi_infoframe_3d+0x4f4>
		return -1;
   817f0:	00bfffc4 	movi	r2,-1
   817f4:	e0bfff15 	stw	r2,-4(fp)
   817f8:	00000a06 	br	81824 <adv7513_avi_infoframe_3d+0x51c>

	// 0x4a[7] <- auto checksum
	// 0x4a[6] avi infoframe packet update 0)locked-by-packet_buffer 1)locked-by-i2c
	// 0x4a[5] audio infoframe packet update 0)locked-by-packet_buffer 1)locked-by-i2c
	// 0x4a[4] gc packet update 0)locked-by-packet_buffer 1)locked-by-i2c
	if (reg_clear_bits(ec, 0x4a, 0x40) != 0)
   817fc:	e13ffd17 	ldw	r4,-12(fp)
   81800:	01401284 	movi	r5,74
   81804:	01801004 	movi	r6,64
   81808:	008b2000 	call	8b200 <reg_clear_bits>
   8180c:	1005003a 	cmpeq	r2,r2,zero
   81810:	1000031e 	bne	r2,zero,81820 <adv7513_avi_infoframe_3d+0x518>
		return -1;
   81814:	00bfffc4 	movi	r2,-1
   81818:	e0bfff15 	stw	r2,-4(fp)
   8181c:	00000106 	br	81824 <adv7513_avi_infoframe_3d+0x51c>

	return 0;
   81820:	e03fff15 	stw	zero,-4(fp)
   81824:	e0bfff17 	ldw	r2,-4(fp)
}
   81828:	e037883a 	mov	sp,fp
   8182c:	dfc00117 	ldw	ra,4(sp)
   81830:	df000017 	ldw	fp,0(sp)
   81834:	dec00204 	addi	sp,sp,8
   81838:	f800283a 	ret

0008183c <adv7513_vendor_infoframe_3d>:
//
// vic		   - adv7513_vic
//
// 0x52 ~ 0x71
static int adv7513_vendor_infoframe_3d(struct hdmi_encoder *ec, int vic)
{
   8183c:	defffb04 	addi	sp,sp,-20
   81840:	de00012e 	bgeu	sp,et,81848 <adv7513_vendor_infoframe_3d+0xc>
   81844:	003da0fa 	break	3
   81848:	df000415 	stw	fp,16(sp)
   8184c:	df000404 	addi	fp,sp,16
   81850:	e13ffe15 	stw	r4,-8(fp)
   81854:	e17fff15 	stw	r5,-4(fp)
	struct vendor_infoframe *vsi = &ec->vendor_if;
   81858:	e0bffe17 	ldw	r2,-8(fp)
   8185c:	10801b04 	addi	r2,r2,108
   81860:	e0bffd15 	stw	r2,-12(fp)
	int regv;

	//printf("adv7513_vendor_infoframe_3d()\n");

#if 1  // local development defaults
	vsi->struct_3d = 8;		// 0)frame_packing 6)top-bottom 8)side-by-side
   81864:	e0fffd17 	ldw	r3,-12(fp)
   81868:	00800204 	movi	r2,8
   8186c:	18800015 	stw	r2,0(r3)
	vsi->ext_data_3d = 1;	// valid for side-by-side 0b0000 ~ 0b0011
   81870:	e0fffd17 	ldw	r3,-12(fp)
   81874:	00800044 	movi	r2,1
   81878:	18800115 	stw	r2,4(r3)

#endif


	return 0;
   8187c:	0005883a 	mov	r2,zero
}
   81880:	e037883a 	mov	sp,fp
   81884:	df000017 	ldw	fp,0(sp)
   81888:	dec00104 	addi	sp,sp,4
   8188c:	f800283a 	ret

00081890 <adv7513_video_out_format_3d>:
// out video format
//
// format   - adv7513_output_format
// vic		- adv7513_vic
static int adv7513_video_out_format_3d(struct hdmi_encoder *ec, int format, int vic)
{
   81890:	defff904 	addi	sp,sp,-28
   81894:	de00012e 	bgeu	sp,et,8189c <adv7513_video_out_format_3d+0xc>
   81898:	003da0fa 	break	3
   8189c:	dfc00615 	stw	ra,24(sp)
   818a0:	df000515 	stw	fp,20(sp)
   818a4:	df000504 	addi	fp,sp,20
   818a8:	e13ffc15 	stw	r4,-16(fp)
   818ac:	e17ffd15 	stw	r5,-12(fp)
   818b0:	e1bffe15 	stw	r6,-8(fp)
	int regv;

	//printf("adv7513_video_out_format_3d()\n");

	// 0x16[7] <- format
	regv = (format & 0x01) << 7;
   818b4:	e0bffd17 	ldw	r2,-12(fp)
   818b8:	1080004c 	andi	r2,r2,1
   818bc:	100491fa 	slli	r2,r2,7
   818c0:	e0bffb15 	stw	r2,-20(fp)
	if (reg_update_bits(ec, 0x16, 0x80, regv) != 0)
   818c4:	e13ffc17 	ldw	r4,-16(fp)
   818c8:	01400584 	movi	r5,22
   818cc:	01802004 	movi	r6,128
   818d0:	e1fffb17 	ldw	r7,-20(fp)
   818d4:	008afc80 	call	8afc8 <reg_update_bits>
   818d8:	1005003a 	cmpeq	r2,r2,zero
   818dc:	1000031e 	bne	r2,zero,818ec <adv7513_video_out_format_3d+0x5c>
		return -1;
   818e0:	00bfffc4 	movi	r2,-1
   818e4:	e0bfff15 	stw	r2,-4(fp)
   818e8:	00003c06 	br	819dc <adv7513_video_out_format_3d+0x14c>

	// 0x18 ~ 0x2f
	if (adv7513_config_csc(ec, 0, 0) != 0) {
   818ec:	e13ffc17 	ldw	r4,-16(fp)
   818f0:	000b883a 	mov	r5,zero
   818f4:	000d883a 	mov	r6,zero
   818f8:	0080a0c0 	call	80a0c <adv7513_config_csc>
   818fc:	1005003a 	cmpeq	r2,r2,zero
   81900:	1000031e 	bne	r2,zero,81910 <adv7513_video_out_format_3d+0x80>
		return -1;
   81904:	00bfffc4 	movi	r2,-1
   81908:	e0bfff15 	stw	r2,-4(fp)
   8190c:	00003306 	br	819dc <adv7513_video_out_format_3d+0x14c>
	}

	// 0xaf[7] <- hdcp (enable/disable)
	// 0xaf[1] <- 0)dvi 1)hdmi (section 4.2.2)
	if (reg_update_bits(ec, 0xaf, 0x82, (1 & 0x01) << 1) != 0)
   81910:	e13ffc17 	ldw	r4,-16(fp)
   81914:	01402bc4 	movi	r5,175
   81918:	01802084 	movi	r6,130
   8191c:	01c00084 	movi	r7,2
   81920:	008afc80 	call	8afc8 <reg_update_bits>
   81924:	1005003a 	cmpeq	r2,r2,zero
   81928:	1000031e 	bne	r2,zero,81938 <adv7513_video_out_format_3d+0xa8>
		return -1;
   8192c:	00bfffc4 	movi	r2,-1
   81930:	e0bfff15 	stw	r2,-4(fp)
   81934:	00002906 	br	819dc <adv7513_video_out_format_3d+0x14c>

	// general control packet
	// 0x40[7] <- gc (section 4.2.3 && 4.3.3)
	if (reg_update_bits(ec, 0x40, 0x80, (1 & 0x01) << 7) != 0)
   81938:	e13ffc17 	ldw	r4,-16(fp)
   8193c:	01401004 	movi	r5,64
   81940:	01802004 	movi	r6,128
   81944:	01c02004 	movi	r7,128
   81948:	008afc80 	call	8afc8 <reg_update_bits>
   8194c:	1005003a 	cmpeq	r2,r2,zero
   81950:	1000031e 	bne	r2,zero,81960 <adv7513_video_out_format_3d+0xd0>
		return -1;
   81954:	00bfffc4 	movi	r2,-1
   81958:	e0bfff15 	stw	r2,-4(fp)
   8195c:	00001f06 	br	819dc <adv7513_video_out_format_3d+0x14c>

	// 0x4c[3:0] <- gc_depth (section 4.2.6)
	if (reg_update_bits(ec, 0x4c, 0x0f, 4 & 0x0f) != 0)
   81960:	e13ffc17 	ldw	r4,-16(fp)
   81964:	01401304 	movi	r5,76
   81968:	018003c4 	movi	r6,15
   8196c:	01c00104 	movi	r7,4
   81970:	008afc80 	call	8afc8 <reg_update_bits>
   81974:	1005003a 	cmpeq	r2,r2,zero
   81978:	1000031e 	bne	r2,zero,81988 <adv7513_video_out_format_3d+0xf8>
		return -1;
   8197c:	00bfffc4 	movi	r2,-1
   81980:	e0bfff15 	stw	r2,-4(fp)
   81984:	00001506 	br	819dc <adv7513_video_out_format_3d+0x14c>

	// pixel repetition
	// 0x3b[6:5] <- pr mode 0)auto 1)max 2)manual 3)manual
	// 0x3b[4:3] <- pr pll (x input) 0)x1 1)x2 2)x4 3)x4
	// 0x3b[2:1] <- pr pll (sent) 0)x1 1)x2 2)x4 3)x4
	if (reg_update_bits(ec, 0x3b, 0x7e, (2 << 5) | (0 << 3) | (0 << 1)) != 0)
   81988:	e13ffc17 	ldw	r4,-16(fp)
   8198c:	01400ec4 	movi	r5,59
   81990:	01801f84 	movi	r6,126
   81994:	01c01004 	movi	r7,64
   81998:	008afc80 	call	8afc8 <reg_update_bits>
   8199c:	1005003a 	cmpeq	r2,r2,zero
   819a0:	1000031e 	bne	r2,zero,819b0 <adv7513_video_out_format_3d+0x120>
		return -1;
   819a4:	00bfffc4 	movi	r2,-1
   819a8:	e0bfff15 	stw	r2,-4(fp)
   819ac:	00000b06 	br	819dc <adv7513_video_out_format_3d+0x14c>

	// manual VIC
	// 0x3c[5:0] <- 0x01 & 0x3f
	if (reg_update_bits(ec, 0x3c, 0x3f, vic) != 0)
   819b0:	e13ffc17 	ldw	r4,-16(fp)
   819b4:	01400f04 	movi	r5,60
   819b8:	01800fc4 	movi	r6,63
   819bc:	e1fffe17 	ldw	r7,-8(fp)
   819c0:	008afc80 	call	8afc8 <reg_update_bits>
   819c4:	1005003a 	cmpeq	r2,r2,zero
   819c8:	1000031e 	bne	r2,zero,819d8 <adv7513_video_out_format_3d+0x148>
		return -1;
   819cc:	00bfffc4 	movi	r2,-1
   819d0:	e0bfff15 	stw	r2,-4(fp)
   819d4:	00000106 	br	819dc <adv7513_video_out_format_3d+0x14c>

	return 0;
   819d8:	e03fff15 	stw	zero,-4(fp)
   819dc:	e0bfff17 	ldw	r2,-4(fp)
}
   819e0:	e037883a 	mov	sp,fp
   819e4:	dfc00117 	ldw	ra,4(sp)
   819e8:	df000017 	ldw	fp,0(sp)
   819ec:	dec00204 	addi	sp,sp,8
   819f0:	f800283a 	ret

000819f4 <adv7513_video_init>:
	return 0;
}
#endif

static int adv7513_video_init(struct hdmi_encoder *ec, int dvi)
{
   819f4:	defff904 	addi	sp,sp,-28
   819f8:	de00012e 	bgeu	sp,et,81a00 <adv7513_video_init+0xc>
   819fc:	003da0fa 	break	3
   81a00:	dfc00615 	stw	ra,24(sp)
   81a04:	df000515 	stw	fp,20(sp)
   81a08:	df000504 	addi	fp,sp,20
   81a0c:	e13ffd15 	stw	r4,-12(fp)
   81a10:	e17ffe15 	stw	r5,-8(fp)
	//	if (adv7513_video_misc_config(ec) != 0)
	//		return -1;
	//}

	// 0x15 0x16 0x17
	if (adv7513_video_in_format(ec, ADV7513_INPUT_ID_24BIT_RGB444_YCBCR444, ADV7513_INPUT_COLOR_DEPTH_8BIT, ADV7513_INPUT_COLOR_SPACE_RGB, ADV7513_INPUT_ASPECT_4V3, ADV7513_INPUT_INVALID) != 0)
   81a14:	d8000015 	stw	zero,0(sp)
   81a18:	d8000115 	stw	zero,4(sp)
   81a1c:	e13ffd17 	ldw	r4,-12(fp)
   81a20:	000b883a 	mov	r5,zero
   81a24:	018000c4 	movi	r6,3
   81a28:	000f883a 	mov	r7,zero
   81a2c:	0080a980 	call	80a98 <adv7513_video_in_format>
   81a30:	1005003a 	cmpeq	r2,r2,zero
   81a34:	1000031e 	bne	r2,zero,81a44 <adv7513_video_init+0x50>
		return -1;
   81a38:	00bfffc4 	movi	r2,-1
   81a3c:	e0bfff15 	stw	r2,-4(fp)
   81a40:	00001d06 	br	81ab8 <adv7513_video_init+0xc4>

	// 0x16 0x18 0xaf 0x40 0x4c 0x3c
	if (dvi != 0) {
   81a44:	e0bffe17 	ldw	r2,-8(fp)
   81a48:	1005003a 	cmpeq	r2,r2,zero
   81a4c:	1000091e 	bne	r2,zero,81a74 <adv7513_video_init+0x80>
		if (adv7513_video_out_format(ec, ADV7513_OUTPUT_444, ADV7513_MODE_DVI) != 0)
   81a50:	e13ffd17 	ldw	r4,-12(fp)
   81a54:	000b883a 	mov	r5,zero
   81a58:	000d883a 	mov	r6,zero
   81a5c:	0080b900 	call	80b90 <adv7513_video_out_format>
   81a60:	1005003a 	cmpeq	r2,r2,zero
   81a64:	10000c1e 	bne	r2,zero,81a98 <adv7513_video_init+0xa4>
			return -1;
   81a68:	00bfffc4 	movi	r2,-1
   81a6c:	e0bfff15 	stw	r2,-4(fp)
   81a70:	00001106 	br	81ab8 <adv7513_video_init+0xc4>
	} else {
		if (adv7513_video_out_format(ec, ADV7513_OUTPUT_444, ADV7513_MODE_HDMI) != 0)
   81a74:	e13ffd17 	ldw	r4,-12(fp)
   81a78:	000b883a 	mov	r5,zero
   81a7c:	01800044 	movi	r6,1
   81a80:	0080b900 	call	80b90 <adv7513_video_out_format>
   81a84:	1005003a 	cmpeq	r2,r2,zero
   81a88:	1000031e 	bne	r2,zero,81a98 <adv7513_video_init+0xa4>
			return -1;
   81a8c:	00bfffc4 	movi	r2,-1
   81a90:	e0bfff15 	stw	r2,-4(fp)
   81a94:	00000806 	br	81ab8 <adv7513_video_init+0xc4>
	//	return -1;

	//if (adv7513_de_gen(ec, 0, 40 + 48 + 40, 640, 13 + 3 + 29, 480, 0) != 0)
	//	return -1;

	if (adv7513_avi_infoframe(ec) != 0)
   81a98:	e13ffd17 	ldw	r4,-12(fp)
   81a9c:	0080ce00 	call	80ce0 <adv7513_avi_infoframe>
   81aa0:	1005003a 	cmpeq	r2,r2,zero
   81aa4:	1000031e 	bne	r2,zero,81ab4 <adv7513_video_init+0xc0>
		return -1;
   81aa8:	00bfffc4 	movi	r2,-1
   81aac:	e0bfff15 	stw	r2,-4(fp)
   81ab0:	00000106 	br	81ab8 <adv7513_video_init+0xc4>

	return 0;
   81ab4:	e03fff15 	stw	zero,-4(fp)
   81ab8:	e0bfff17 	ldw	r2,-4(fp)
}
   81abc:	e037883a 	mov	sp,fp
   81ac0:	dfc00117 	ldw	ra,4(sp)
   81ac4:	df000017 	ldw	fp,0(sp)
   81ac8:	dec00204 	addi	sp,sp,8
   81acc:	f800283a 	ret

00081ad0 <adv7513_video_init_3d>:

static int adv7513_video_init_3d(struct hdmi_encoder *ec, int vic)
{
   81ad0:	defff904 	addi	sp,sp,-28
   81ad4:	de00012e 	bgeu	sp,et,81adc <adv7513_video_init_3d+0xc>
   81ad8:	003da0fa 	break	3
   81adc:	dfc00615 	stw	ra,24(sp)
   81ae0:	df000515 	stw	fp,20(sp)
   81ae4:	df000504 	addi	fp,sp,20
   81ae8:	e13ffd15 	stw	r4,-12(fp)
   81aec:	e17ffe15 	stw	r5,-8(fp)
	//	if (adv7513_video_misc_config(ec) != 0)
	//		return -1;
	//}

	// 0x15 0x16 0x17
	if (adv7513_video_in_format_3d(ec, ADV7513_INPUT_ID_24BIT_RGB444_YCBCR444, ADV7513_INPUT_COLOR_DEPTH_8BIT, ADV7513_INPUT_COLOR_SPACE_RGB, ADV7513_INPUT_INVALID, vic) != 0)
   81af0:	d8000015 	stw	zero,0(sp)
   81af4:	e0bffe17 	ldw	r2,-8(fp)
   81af8:	d8800115 	stw	r2,4(sp)
   81afc:	e13ffd17 	ldw	r4,-12(fp)
   81b00:	000b883a 	mov	r5,zero
   81b04:	018000c4 	movi	r6,3
   81b08:	000f883a 	mov	r7,zero
   81b0c:	00811700 	call	81170 <adv7513_video_in_format_3d>
   81b10:	1005003a 	cmpeq	r2,r2,zero
   81b14:	1000031e 	bne	r2,zero,81b24 <adv7513_video_init_3d+0x54>
		return -1;
   81b18:	00bfffc4 	movi	r2,-1
   81b1c:	e0bfff15 	stw	r2,-4(fp)
   81b20:	00001206 	br	81b6c <adv7513_video_init_3d+0x9c>

	// 0x16 0x18 0xaf 0x40 0x4c 0x3c
	if (adv7513_video_out_format_3d(ec, ADV7513_OUTPUT_444, vic) != 0)
   81b24:	e13ffd17 	ldw	r4,-12(fp)
   81b28:	000b883a 	mov	r5,zero
   81b2c:	e1bffe17 	ldw	r6,-8(fp)
   81b30:	00818900 	call	81890 <adv7513_video_out_format_3d>
   81b34:	1005003a 	cmpeq	r2,r2,zero
   81b38:	1000031e 	bne	r2,zero,81b48 <adv7513_video_init_3d+0x78>
		return -1;
   81b3c:	00bfffc4 	movi	r2,-1
   81b40:	e0bfff15 	stw	r2,-4(fp)
   81b44:	00000906 	br	81b6c <adv7513_video_init_3d+0x9c>
	//	return -1;

	//if (adv7513_de_gen(ec, 0, 40 + 48 + 40, 640, 13 + 3 + 29, 480, 0) != 0)
	//	return -1;

	if (adv7513_avi_infoframe_3d(ec, vic) != 0)
   81b48:	e13ffd17 	ldw	r4,-12(fp)
   81b4c:	e17ffe17 	ldw	r5,-8(fp)
   81b50:	00813080 	call	81308 <adv7513_avi_infoframe_3d>
   81b54:	1005003a 	cmpeq	r2,r2,zero
   81b58:	1000031e 	bne	r2,zero,81b68 <adv7513_video_init_3d+0x98>
		return -1;
   81b5c:	00bfffc4 	movi	r2,-1
   81b60:	e0bfff15 	stw	r2,-4(fp)
   81b64:	00000106 	br	81b6c <adv7513_video_init_3d+0x9c>

	return 0;
   81b68:	e03fff15 	stw	zero,-4(fp)
   81b6c:	e0bfff17 	ldw	r2,-4(fp)
}
   81b70:	e037883a 	mov	sp,fp
   81b74:	dfc00117 	ldw	ra,4(sp)
   81b78:	df000017 	ldw	fp,0(sp)
   81b7c:	dec00204 	addi	sp,sp,8
   81b80:	f800283a 	ret

00081b84 <adv7513_chip_init>:
	return 0;
}
#endif

int adv7513_chip_init(struct hdmi_encoder *ec, int dvi)
{
   81b84:	defffb04 	addi	sp,sp,-20
   81b88:	de00012e 	bgeu	sp,et,81b90 <adv7513_chip_init+0xc>
   81b8c:	003da0fa 	break	3
   81b90:	dfc00415 	stw	ra,16(sp)
   81b94:	df000315 	stw	fp,12(sp)
   81b98:	df000304 	addi	fp,sp,12
   81b9c:	e13ffd15 	stw	r4,-12(fp)
   81ba0:	e17ffe15 	stw	r5,-8(fp)
	if (adv7513_video_init(ec, dvi) != 0)
   81ba4:	e13ffd17 	ldw	r4,-12(fp)
   81ba8:	e17ffe17 	ldw	r5,-8(fp)
   81bac:	00819f40 	call	819f4 <adv7513_video_init>
   81bb0:	1005003a 	cmpeq	r2,r2,zero
   81bb4:	1000031e 	bne	r2,zero,81bc4 <adv7513_chip_init+0x40>
		return -1;
   81bb8:	00bfffc4 	movi	r2,-1
   81bbc:	e0bfff15 	stw	r2,-4(fp)
   81bc0:	00000106 	br	81bc8 <adv7513_chip_init+0x44>

	//if (adv7513_audio_init(ec) != 0)
	//	return -1;

	return 0;
   81bc4:	e03fff15 	stw	zero,-4(fp)
   81bc8:	e0bfff17 	ldw	r2,-4(fp)
}
   81bcc:	e037883a 	mov	sp,fp
   81bd0:	dfc00117 	ldw	ra,4(sp)
   81bd4:	df000017 	ldw	fp,0(sp)
   81bd8:	dec00204 	addi	sp,sp,8
   81bdc:	f800283a 	ret

00081be0 <adv7513_chip_init_3d>:

int adv7513_chip_init_3d(struct hdmi_encoder *ec, int vic)
{
   81be0:	defffb04 	addi	sp,sp,-20
   81be4:	de00012e 	bgeu	sp,et,81bec <adv7513_chip_init_3d+0xc>
   81be8:	003da0fa 	break	3
   81bec:	dfc00415 	stw	ra,16(sp)
   81bf0:	df000315 	stw	fp,12(sp)
   81bf4:	df000304 	addi	fp,sp,12
   81bf8:	e13ffd15 	stw	r4,-12(fp)
   81bfc:	e17ffe15 	stw	r5,-8(fp)
	if (adv7513_video_init_3d(ec, vic) != 0)
   81c00:	e13ffd17 	ldw	r4,-12(fp)
   81c04:	e17ffe17 	ldw	r5,-8(fp)
   81c08:	0081ad00 	call	81ad0 <adv7513_video_init_3d>
   81c0c:	1005003a 	cmpeq	r2,r2,zero
   81c10:	1000031e 	bne	r2,zero,81c20 <adv7513_chip_init_3d+0x40>
		return -1;
   81c14:	00bfffc4 	movi	r2,-1
   81c18:	e0bfff15 	stw	r2,-4(fp)
   81c1c:	00000106 	br	81c24 <adv7513_chip_init_3d+0x44>

	//if (adv7513_audio_init(ec) != 0)
	//	return -1;

	return 0;
   81c20:	e03fff15 	stw	zero,-4(fp)
   81c24:	e0bfff17 	ldw	r2,-4(fp)
}
   81c28:	e037883a 	mov	sp,fp
   81c2c:	dfc00117 	ldw	ra,4(sp)
   81c30:	df000017 	ldw	fp,0(sp)
   81c34:	dec00204 	addi	sp,sp,8
   81c38:	f800283a 	ret

00081c3c <edid_decode_cea>:
    return v;
}
#endif

int edid_decode_cea(struct base_edid *edid, const unsigned char *edid_bin, int ext_idx)
{
   81c3c:	deffec04 	addi	sp,sp,-80
   81c40:	de00012e 	bgeu	sp,et,81c48 <edid_decode_cea+0xc>
   81c44:	003da0fa 	break	3
   81c48:	dfc01315 	stw	ra,76(sp)
   81c4c:	df001215 	stw	fp,72(sp)
   81c50:	df001204 	addi	fp,sp,72
   81c54:	e13ffa15 	stw	r4,-24(fp)
   81c58:	e17ffb15 	stw	r5,-20(fp)
   81c5c:	e1bffc15 	stw	r6,-16(fp)
	u8 *ext_bin = (u8 *)&edid_bin[128 * (ext_idx + 1)];
   81c60:	e0bffc17 	ldw	r2,-16(fp)
   81c64:	100491fa 	slli	r2,r2,7
   81c68:	1007883a 	mov	r3,r2
   81c6c:	e0bffb17 	ldw	r2,-20(fp)
   81c70:	1885883a 	add	r2,r3,r2
   81c74:	10802004 	addi	r2,r2,128
   81c78:	e0bff915 	stw	r2,-28(fp)
	u8 *c, *hv, *dtd = 0;
   81c7c:	e03ff615 	stw	zero,-40(fp)
	int i;

	struct ext_data *ext_data = &edid->ext_data[ext_idx];
   81c80:	e0bffa17 	ldw	r2,-24(fp)
   81c84:	10c60b04 	addi	r3,r2,6188
   81c88:	e0bffc17 	ldw	r2,-16(fp)
   81c8c:	10816f24 	muli	r2,r2,1468
   81c90:	1885883a 	add	r2,r3,r2
   81c94:	e0bff415 	stw	r2,-48(fp)
	struct edid_cea *cea = &ext_data->cea_ext;
   81c98:	e0bff417 	ldw	r2,-48(fp)
   81c9c:	10800104 	addi	r2,r2,4
   81ca0:	e0bff315 	stw	r2,-52(fp)

	c = &ext_bin[1];
   81ca4:	e0bff917 	ldw	r2,-28(fp)
   81ca8:	10800044 	addi	r2,r2,1
   81cac:	e0bff815 	stw	r2,-32(fp)

	// version
	if (*c != 0x03)
   81cb0:	e0bff817 	ldw	r2,-32(fp)
   81cb4:	10800003 	ldbu	r2,0(r2)
   81cb8:	10803fcc 	andi	r2,r2,255
   81cbc:	108000e0 	cmpeqi	r2,r2,3
   81cc0:	1000031e 	bne	r2,zero,81cd0 <edid_decode_cea+0x94>
		return -1;	// todo: support v1 / v2
   81cc4:	00bfffc4 	movi	r2,-1
   81cc8:	e0bfff15 	stw	r2,-4(fp)
   81ccc:	00061a06 	br	83538 <edid_decode_cea+0x18fc>

	ext_data->ext_tag = EDID_EXT_TAG_CEA;
   81cd0:	e0fff417 	ldw	r3,-48(fp)
   81cd4:	00800084 	movi	r2,2
   81cd8:	18800015 	stw	r2,0(r3)
	cea->rev = *c;
   81cdc:	e0bff817 	ldw	r2,-32(fp)
   81ce0:	10800003 	ldbu	r2,0(r2)
   81ce4:	10c03fcc 	andi	r3,r2,255
   81ce8:	e0bff317 	ldw	r2,-52(fp)
   81cec:	10c00015 	stw	r3,0(r2)

	// obtain offset to detail timing descriptor
	c = &ext_bin[2];
   81cf0:	e0bff917 	ldw	r2,-28(fp)
   81cf4:	10800084 	addi	r2,r2,2
   81cf8:	e0bff815 	stw	r2,-32(fp)
	if (*c > 4)
   81cfc:	e0bff817 	ldw	r2,-32(fp)
   81d00:	10800003 	ldbu	r2,0(r2)
   81d04:	10803fcc 	andi	r2,r2,255
   81d08:	10800170 	cmpltui	r2,r2,5
   81d0c:	1000071e 	bne	r2,zero,81d2c <edid_decode_cea+0xf0>
		dtd = &ext_bin[*c];
   81d10:	e0bff817 	ldw	r2,-32(fp)
   81d14:	10800003 	ldbu	r2,0(r2)
   81d18:	10803fcc 	andi	r2,r2,255
   81d1c:	1007883a 	mov	r3,r2
   81d20:	e0bff917 	ldw	r2,-28(fp)
   81d24:	1885883a 	add	r2,r3,r2
   81d28:	e0bff615 	stw	r2,-40(fp)

	cea->off_dtd = c[0];
   81d2c:	e0bff817 	ldw	r2,-32(fp)
   81d30:	10800003 	ldbu	r2,0(r2)
   81d34:	10c03fcc 	andi	r3,r2,255
   81d38:	e0bff317 	ldw	r2,-52(fp)
   81d3c:	10c00515 	stw	r3,20(r2)
	cea->nr_dtd = c[1] & 0x0f;
   81d40:	e0bff817 	ldw	r2,-32(fp)
   81d44:	10800044 	addi	r2,r2,1
   81d48:	10800003 	ldbu	r2,0(r2)
   81d4c:	10803fcc 	andi	r2,r2,255
   81d50:	10c003cc 	andi	r3,r2,15
   81d54:	e0bff317 	ldw	r2,-52(fp)
   81d58:	10c00615 	stw	r3,24(r2)

	cea->flags.underscan = ((c[1] & 0x80) > 0) ? 1 : 0;
   81d5c:	e0bff817 	ldw	r2,-32(fp)
   81d60:	10800044 	addi	r2,r2,1
   81d64:	10800003 	ldbu	r2,0(r2)
   81d68:	10803fcc 	andi	r2,r2,255
   81d6c:	1080200c 	andi	r2,r2,128
   81d70:	10c00048 	cmpgei	r3,r2,1
   81d74:	e0bff317 	ldw	r2,-52(fp)
   81d78:	10c00115 	stw	r3,4(r2)
	cea->flags.audio = ((c[1] & 0x40) > 0) ? 1 : 0;
   81d7c:	e0bff817 	ldw	r2,-32(fp)
   81d80:	10800044 	addi	r2,r2,1
   81d84:	10800003 	ldbu	r2,0(r2)
   81d88:	10803fcc 	andi	r2,r2,255
   81d8c:	1080100c 	andi	r2,r2,64
   81d90:	10c00048 	cmpgei	r3,r2,1
   81d94:	e0bff317 	ldw	r2,-52(fp)
   81d98:	10c00215 	stw	r3,8(r2)
	cea->flags.ycbcr444 = ((c[1] & 0x20) > 0) ? 1 : 0;
   81d9c:	e0bff817 	ldw	r2,-32(fp)
   81da0:	10800044 	addi	r2,r2,1
   81da4:	10800003 	ldbu	r2,0(r2)
   81da8:	10803fcc 	andi	r2,r2,255
   81dac:	1080080c 	andi	r2,r2,32
   81db0:	10c00048 	cmpgei	r3,r2,1
   81db4:	e0bff317 	ldw	r2,-52(fp)
   81db8:	10c00315 	stw	r3,12(r2)
	cea->flags.ycbcr422 = ((c[1] & 0x10) > 0) ? 1 : 0;
   81dbc:	e0bff817 	ldw	r2,-32(fp)
   81dc0:	10800044 	addi	r2,r2,1
   81dc4:	10800003 	ldbu	r2,0(r2)
   81dc8:	10803fcc 	andi	r2,r2,255
   81dcc:	1080040c 	andi	r2,r2,16
   81dd0:	10c00048 	cmpgei	r3,r2,1
   81dd4:	e0bff317 	ldw	r2,-52(fp)
   81dd8:	10c00415 	stw	r3,16(r2)

	// data block collection
	c = &ext_bin[4];
   81ddc:	e0bff917 	ldw	r2,-28(fp)
   81de0:	10800104 	addi	r2,r2,4
   81de4:	e0bff815 	stw	r2,-32(fp)

	cea->nr_dbcs = 0;
   81de8:	e0bff317 	ldw	r2,-52(fp)
   81dec:	10000715 	stw	zero,28(r2)
	while (c < dtd) {
   81df0:	00039c06 	br	82c64 <edid_decode_cea+0x1028>
		switch (*c >> 5) {
   81df4:	e0bff817 	ldw	r2,-32(fp)
   81df8:	10800003 	ldbu	r2,0(r2)
   81dfc:	10803fcc 	andi	r2,r2,255
   81e00:	1004d17a 	srli	r2,r2,5
   81e04:	10803fcc 	andi	r2,r2,255
   81e08:	e0bffe15 	stw	r2,-8(fp)
   81e0c:	e0fffe17 	ldw	r3,-8(fp)
   81e10:	18800228 	cmpgeui	r2,r3,8
   81e14:	1003911e 	bne	r2,zero,82c5c <edid_decode_cea+0x1020>
   81e18:	e13ffe17 	ldw	r4,-8(fp)
   81e1c:	e13ffe17 	ldw	r4,-8(fp)
   81e20:	2105883a 	add	r2,r4,r4
   81e24:	1087883a 	add	r3,r2,r2
   81e28:	00800234 	movhi	r2,8
   81e2c:	10878f04 	addi	r2,r2,7740
   81e30:	1885883a 	add	r2,r3,r2
   81e34:	10800017 	ldw	r2,0(r2)
   81e38:	1000683a 	jmp	r2
   81e3c:	00082c5c 	xori	zero,zero,8369
   81e40:	00081e5c 	xori	zero,zero,8313
   81e44:	0008205c 	xori	zero,zero,8321
   81e48:	00082158 	cmpnei	zero,zero,8325
   81e4c:	000828ec 	andhi	zero,zero,8355
   81e50:	00082958 	cmpnei	zero,zero,8357
   81e54:	00082c5c 	xori	zero,zero,8369
   81e58:	000829a8 	cmpgeui	zero,zero,8358
		case CEA_DB_AUDIO:
			cea->dbc_tags[cea->nr_dbcs++] = CEA_DB_AUDIO;
   81e5c:	e0bff317 	ldw	r2,-52(fp)
   81e60:	11000717 	ldw	r4,28(r2)
   81e64:	e0bff317 	ldw	r2,-52(fp)
   81e68:	2085883a 	add	r2,r4,r2
   81e6c:	10c00804 	addi	r3,r2,32
   81e70:	00800044 	movi	r2,1
   81e74:	18800005 	stb	r2,0(r3)
   81e78:	20c00044 	addi	r3,r4,1
   81e7c:	e0bff317 	ldw	r2,-52(fp)
   81e80:	10c00715 	stw	r3,28(r2)
			cea->db_audio.nr_sad = (int)(*c & 0x1f) / 3;
   81e84:	e0bff817 	ldw	r2,-32(fp)
   81e88:	10800003 	ldbu	r2,0(r2)
   81e8c:	10803fcc 	andi	r2,r2,255
   81e90:	110007cc 	andi	r4,r2,31
   81e94:	014000c4 	movi	r5,3
   81e98:	008d7940 	call	8d794 <__divsi3>
   81e9c:	1007883a 	mov	r3,r2
   81ea0:	e0bff317 	ldw	r2,-52(fp)
   81ea4:	10c06815 	stw	r3,416(r2)
			for (i = 0; i < cea->db_audio.nr_sad; ++i) {
   81ea8:	e03ff515 	stw	zero,-44(fp)
   81eac:	00005d06 	br	82024 <edid_decode_cea+0x3e8>
				u8 *sad_bin = &c[1+3*i];
   81eb0:	e0fff517 	ldw	r3,-44(fp)
   81eb4:	1805883a 	mov	r2,r3
   81eb8:	1085883a 	add	r2,r2,r2
   81ebc:	10c5883a 	add	r2,r2,r3
   81ec0:	1007883a 	mov	r3,r2
   81ec4:	e0bff817 	ldw	r2,-32(fp)
   81ec8:	1885883a 	add	r2,r3,r2
   81ecc:	10800044 	addi	r2,r2,1
   81ed0:	e0bff215 	stw	r2,-56(fp)
				cea->db_audio.sad[i].format = (int)((*sad_bin >> 3) & 0xf);
   81ed4:	e17ff517 	ldw	r5,-44(fp)
   81ed8:	e0bff217 	ldw	r2,-56(fp)
   81edc:	10800003 	ldbu	r2,0(r2)
   81ee0:	10803fcc 	andi	r2,r2,255
   81ee4:	1004d0fa 	srli	r2,r2,3
   81ee8:	10803fcc 	andi	r2,r2,255
   81eec:	110003cc 	andi	r4,r2,15
   81ef0:	e0fff317 	ldw	r3,-52(fp)
   81ef4:	28800524 	muli	r2,r5,20
   81ef8:	10c5883a 	add	r2,r2,r3
   81efc:	10806904 	addi	r2,r2,420
   81f00:	11000015 	stw	r4,0(r2)
				cea->db_audio.sad[i].channels = (int)(*sad_bin & 0x7) + 1;
   81f04:	e17ff517 	ldw	r5,-44(fp)
   81f08:	e0bff217 	ldw	r2,-56(fp)
   81f0c:	10800003 	ldbu	r2,0(r2)
   81f10:	10803fcc 	andi	r2,r2,255
   81f14:	108001cc 	andi	r2,r2,7
   81f18:	11000044 	addi	r4,r2,1
   81f1c:	e0fff317 	ldw	r3,-52(fp)
   81f20:	28800524 	muli	r2,r5,20
   81f24:	10c5883a 	add	r2,r2,r3
   81f28:	10806a04 	addi	r2,r2,424
   81f2c:	11000015 	stw	r4,0(r2)
				cea->db_audio.sad[i].freq = (int)(sad_bin[1] & 0x7f);
   81f30:	e17ff517 	ldw	r5,-44(fp)
   81f34:	e0bff217 	ldw	r2,-56(fp)
   81f38:	10800044 	addi	r2,r2,1
   81f3c:	10800003 	ldbu	r2,0(r2)
   81f40:	10803fcc 	andi	r2,r2,255
   81f44:	11001fcc 	andi	r4,r2,127
   81f48:	e0fff317 	ldw	r3,-52(fp)
   81f4c:	28800524 	muli	r2,r5,20
   81f50:	10c5883a 	add	r2,r2,r3
   81f54:	10806b04 	addi	r2,r2,428
   81f58:	11000015 	stw	r4,0(r2)

				if (cea->db_audio.sad[i].format == CEA_SAD_FMT_LPCM) {
   81f5c:	e0bff517 	ldw	r2,-44(fp)
   81f60:	e0fff317 	ldw	r3,-52(fp)
   81f64:	10800524 	muli	r2,r2,20
   81f68:	10c5883a 	add	r2,r2,r3
   81f6c:	10806904 	addi	r2,r2,420
   81f70:	10800017 	ldw	r2,0(r2)
   81f74:	10800058 	cmpnei	r2,r2,1
   81f78:	10000c1e 	bne	r2,zero,81fac <edid_decode_cea+0x370>
					cea->db_audio.sad[i].resolution = (int)(sad_bin[2] & 0x07);
   81f7c:	e17ff517 	ldw	r5,-44(fp)
   81f80:	e0bff217 	ldw	r2,-56(fp)
   81f84:	10800084 	addi	r2,r2,2
   81f88:	10800003 	ldbu	r2,0(r2)
   81f8c:	10803fcc 	andi	r2,r2,255
   81f90:	110001cc 	andi	r4,r2,7
   81f94:	e0fff317 	ldw	r3,-52(fp)
   81f98:	28800524 	muli	r2,r5,20
   81f9c:	10c5883a 	add	r2,r2,r3
   81fa0:	10806c04 	addi	r2,r2,432
   81fa4:	11000015 	stw	r4,0(r2)
   81fa8:	00001b06 	br	82018 <edid_decode_cea+0x3dc>
				} else if (cea->db_audio.sad[i].format != 0) {
   81fac:	e0bff517 	ldw	r2,-44(fp)
   81fb0:	e0fff317 	ldw	r3,-52(fp)
   81fb4:	10800524 	muli	r2,r2,20
   81fb8:	10c5883a 	add	r2,r2,r3
   81fbc:	10806904 	addi	r2,r2,420
   81fc0:	10800017 	ldw	r2,0(r2)
   81fc4:	1005003a 	cmpeq	r2,r2,zero
   81fc8:	1000131e 	bne	r2,zero,82018 <edid_decode_cea+0x3dc>
					if (cea->db_audio.sad[i].format <= CEA_SAD_FMT_ATRAC) {
   81fcc:	e0bff517 	ldw	r2,-44(fp)
   81fd0:	e0fff317 	ldw	r3,-52(fp)
   81fd4:	10800524 	muli	r2,r2,20
   81fd8:	10c5883a 	add	r2,r2,r3
   81fdc:	10806904 	addi	r2,r2,420
   81fe0:	10800017 	ldw	r2,0(r2)
   81fe4:	10800248 	cmpgei	r2,r2,9
   81fe8:	10000b1e 	bne	r2,zero,82018 <edid_decode_cea+0x3dc>
						cea->db_audio.sad[i].bitrate = (int)sad_bin[2] * 8;
   81fec:	e17ff517 	ldw	r5,-44(fp)
   81ff0:	e0bff217 	ldw	r2,-56(fp)
   81ff4:	10800084 	addi	r2,r2,2
   81ff8:	10800003 	ldbu	r2,0(r2)
   81ffc:	10803fcc 	andi	r2,r2,255
   82000:	100890fa 	slli	r4,r2,3
   82004:	e0fff317 	ldw	r3,-52(fp)
   82008:	28800524 	muli	r2,r5,20
   8200c:	10c5883a 	add	r2,r2,r3
   82010:	10806d04 	addi	r2,r2,436
   82014:	11000015 	stw	r4,0(r2)
	while (c < dtd) {
		switch (*c >> 5) {
		case CEA_DB_AUDIO:
			cea->dbc_tags[cea->nr_dbcs++] = CEA_DB_AUDIO;
			cea->db_audio.nr_sad = (int)(*c & 0x1f) / 3;
			for (i = 0; i < cea->db_audio.nr_sad; ++i) {
   82018:	e0bff517 	ldw	r2,-44(fp)
   8201c:	10800044 	addi	r2,r2,1
   82020:	e0bff515 	stw	r2,-44(fp)
   82024:	e0bff317 	ldw	r2,-52(fp)
   82028:	10c06817 	ldw	r3,416(r2)
   8202c:	e0bff517 	ldw	r2,-44(fp)
   82030:	10ff9f16 	blt	r2,r3,81eb0 <edid_decode_cea+0x274>
					if (cea->db_audio.sad[i].format <= CEA_SAD_FMT_ATRAC) {
						cea->db_audio.sad[i].bitrate = (int)sad_bin[2] * 8;
					}
				}
			}
			c += (*c & 0x1f) + 1;
   82034:	e0bff817 	ldw	r2,-32(fp)
   82038:	10800003 	ldbu	r2,0(r2)
   8203c:	10803fcc 	andi	r2,r2,255
   82040:	108007cc 	andi	r2,r2,31
   82044:	1007883a 	mov	r3,r2
   82048:	e0bff817 	ldw	r2,-32(fp)
   8204c:	1885883a 	add	r2,r3,r2
   82050:	10800044 	addi	r2,r2,1
   82054:	e0bff815 	stw	r2,-32(fp)
			break;
   82058:	00030206 	br	82c64 <edid_decode_cea+0x1028>

		case CEA_DB_VIDEO:
			cea->dbc_tags[cea->nr_dbcs++] = CEA_DB_VIDEO;
   8205c:	e0bff317 	ldw	r2,-52(fp)
   82060:	11000717 	ldw	r4,28(r2)
   82064:	e0bff317 	ldw	r2,-52(fp)
   82068:	2085883a 	add	r2,r4,r2
   8206c:	10c00804 	addi	r3,r2,32
   82070:	00800084 	movi	r2,2
   82074:	18800005 	stb	r2,0(r3)
   82078:	20c00044 	addi	r3,r4,1
   8207c:	e0bff317 	ldw	r2,-52(fp)
   82080:	10c00715 	stw	r3,28(r2)
			cea->db_video.nr_svd = (int)(*c & 0x1f);
   82084:	e0bff817 	ldw	r2,-32(fp)
   82088:	10800003 	ldbu	r2,0(r2)
   8208c:	10803fcc 	andi	r2,r2,255
   82090:	10c007cc 	andi	r3,r2,31
   82094:	e0bff317 	ldw	r2,-52(fp)
   82098:	10c02715 	stw	r3,156(r2)
			for (i = 0; i < cea->db_video.nr_svd; ++i) {
   8209c:	e03ff515 	stw	zero,-44(fp)
   820a0:	00001f06 	br	82120 <edid_decode_cea+0x4e4>
				cea->db_video.svd[i].native = c[1 + i] & 0x80 ? 1 : 0;
   820a4:	e17ff517 	ldw	r5,-44(fp)
   820a8:	e0fff517 	ldw	r3,-44(fp)
   820ac:	e0bff817 	ldw	r2,-32(fp)
   820b0:	1885883a 	add	r2,r3,r2
   820b4:	10800044 	addi	r2,r2,1
   820b8:	10800003 	ldbu	r2,0(r2)
   820bc:	10803fcc 	andi	r2,r2,255
   820c0:	1080201c 	xori	r2,r2,128
   820c4:	10bfe004 	addi	r2,r2,-128
   820c8:	1008d7fa 	srli	r4,r2,31
   820cc:	e0fff317 	ldw	r3,-52(fp)
   820d0:	280490fa 	slli	r2,r5,3
   820d4:	10c5883a 	add	r2,r2,r3
   820d8:	10802804 	addi	r2,r2,160
   820dc:	11000015 	stw	r4,0(r2)
				cea->db_video.svd[i].vic = (int)(c[1 + i] & 0x7f);
   820e0:	e17ff517 	ldw	r5,-44(fp)
   820e4:	e0fff517 	ldw	r3,-44(fp)
   820e8:	e0bff817 	ldw	r2,-32(fp)
   820ec:	1885883a 	add	r2,r3,r2
   820f0:	10800044 	addi	r2,r2,1
   820f4:	10800003 	ldbu	r2,0(r2)
   820f8:	10803fcc 	andi	r2,r2,255
   820fc:	11001fcc 	andi	r4,r2,127
   82100:	e0fff317 	ldw	r3,-52(fp)
   82104:	280490fa 	slli	r2,r5,3
   82108:	10c5883a 	add	r2,r2,r3
   8210c:	10802904 	addi	r2,r2,164
   82110:	11000015 	stw	r4,0(r2)
			break;

		case CEA_DB_VIDEO:
			cea->dbc_tags[cea->nr_dbcs++] = CEA_DB_VIDEO;
			cea->db_video.nr_svd = (int)(*c & 0x1f);
			for (i = 0; i < cea->db_video.nr_svd; ++i) {
   82114:	e0bff517 	ldw	r2,-44(fp)
   82118:	10800044 	addi	r2,r2,1
   8211c:	e0bff515 	stw	r2,-44(fp)
   82120:	e0bff317 	ldw	r2,-52(fp)
   82124:	10c02717 	ldw	r3,156(r2)
   82128:	e0bff517 	ldw	r2,-44(fp)
   8212c:	10ffdd16 	blt	r2,r3,820a4 <edid_decode_cea+0x468>
				cea->db_video.svd[i].native = c[1 + i] & 0x80 ? 1 : 0;
				cea->db_video.svd[i].vic = (int)(c[1 + i] & 0x7f);
			}
			c += (*c & 0x1f) + 1;
   82130:	e0bff817 	ldw	r2,-32(fp)
   82134:	10800003 	ldbu	r2,0(r2)
   82138:	10803fcc 	andi	r2,r2,255
   8213c:	108007cc 	andi	r2,r2,31
   82140:	1007883a 	mov	r3,r2
   82144:	e0bff817 	ldw	r2,-32(fp)
   82148:	1885883a 	add	r2,r3,r2
   8214c:	10800044 	addi	r2,r2,1
   82150:	e0bff815 	stw	r2,-32(fp)
			break;
   82154:	0002c306 	br	82c64 <edid_decode_cea+0x1028>

		case CEA_DB_VENDOR:
			cea->dbc_tags[cea->nr_dbcs++] = CEA_DB_VENDOR;
   82158:	e0bff317 	ldw	r2,-52(fp)
   8215c:	11000717 	ldw	r4,28(r2)
   82160:	e0bff317 	ldw	r2,-52(fp)
   82164:	2085883a 	add	r2,r4,r2
   82168:	10c00804 	addi	r3,r2,32
   8216c:	008000c4 	movi	r2,3
   82170:	18800005 	stb	r2,0(r3)
   82174:	20c00044 	addi	r3,r4,1
   82178:	e0bff317 	ldw	r2,-52(fp)
   8217c:	10c00715 	stw	r3,28(r2)

			if ((c[1] != 0x03) || (c[2] != 0x0c) || (c[3] != 0x00)) {
   82180:	e0bff817 	ldw	r2,-32(fp)
   82184:	10800044 	addi	r2,r2,1
   82188:	10800003 	ldbu	r2,0(r2)
   8218c:	10803fcc 	andi	r2,r2,255
   82190:	108000d8 	cmpnei	r2,r2,3
   82194:	10000c1e 	bne	r2,zero,821c8 <edid_decode_cea+0x58c>
   82198:	e0bff817 	ldw	r2,-32(fp)
   8219c:	10800084 	addi	r2,r2,2
   821a0:	10800003 	ldbu	r2,0(r2)
   821a4:	10803fcc 	andi	r2,r2,255
   821a8:	10800318 	cmpnei	r2,r2,12
   821ac:	1000061e 	bne	r2,zero,821c8 <edid_decode_cea+0x58c>
   821b0:	e0bff817 	ldw	r2,-32(fp)
   821b4:	108000c4 	addi	r2,r2,3
   821b8:	10800003 	ldbu	r2,0(r2)
   821bc:	10803fcc 	andi	r2,r2,255
   821c0:	1005003a 	cmpeq	r2,r2,zero
   821c4:	10000c1e 	bne	r2,zero,821f8 <edid_decode_cea+0x5bc>
				cea->db_vsdb_hdmi.ieee_reg_id = 0;
   821c8:	e0bff317 	ldw	r2,-52(fp)
   821cc:	10009d15 	stw	zero,628(r2)
				c += (*c & 0x1f) + 1;
   821d0:	e0bff817 	ldw	r2,-32(fp)
   821d4:	10800003 	ldbu	r2,0(r2)
   821d8:	10803fcc 	andi	r2,r2,255
   821dc:	108007cc 	andi	r2,r2,31
   821e0:	1007883a 	mov	r3,r2
   821e4:	e0bff817 	ldw	r2,-32(fp)
   821e8:	1885883a 	add	r2,r3,r2
   821ec:	10800044 	addi	r2,r2,1
   821f0:	e0bff815 	stw	r2,-32(fp)
				break;
   821f4:	00029b06 	br	82c64 <edid_decode_cea+0x1028>
			}

			cea->db_vsdb_hdmi.ext_len = (int)(*c & 0x1f);
   821f8:	e0bff817 	ldw	r2,-32(fp)
   821fc:	10800003 	ldbu	r2,0(r2)
   82200:	10803fcc 	andi	r2,r2,255
   82204:	10c007cc 	andi	r3,r2,31
   82208:	e0bff317 	ldw	r2,-52(fp)
   8220c:	10c09c15 	stw	r3,624(r2)
			cea->db_vsdb_hdmi.ieee_reg_id = (c[3] << 16) | (c[2] << 8) | c[1];
   82210:	e0bff817 	ldw	r2,-32(fp)
   82214:	108000c4 	addi	r2,r2,3
   82218:	10800003 	ldbu	r2,0(r2)
   8221c:	10803fcc 	andi	r2,r2,255
   82220:	1006943a 	slli	r3,r2,16
   82224:	e0bff817 	ldw	r2,-32(fp)
   82228:	10800084 	addi	r2,r2,2
   8222c:	10800003 	ldbu	r2,0(r2)
   82230:	10803fcc 	andi	r2,r2,255
   82234:	1004923a 	slli	r2,r2,8
   82238:	1886b03a 	or	r3,r3,r2
   8223c:	e0bff817 	ldw	r2,-32(fp)
   82240:	10800044 	addi	r2,r2,1
   82244:	10800003 	ldbu	r2,0(r2)
   82248:	10803fcc 	andi	r2,r2,255
   8224c:	1886b03a 	or	r3,r3,r2
   82250:	e0bff317 	ldw	r2,-52(fp)
   82254:	10c09d15 	stw	r3,628(r2)

			cea->db_vsdb_hdmi.addr_a = (int)(c[4] >> 4);
   82258:	e0bff817 	ldw	r2,-32(fp)
   8225c:	10800104 	addi	r2,r2,4
   82260:	10800003 	ldbu	r2,0(r2)
   82264:	10803fcc 	andi	r2,r2,255
   82268:	1004d13a 	srli	r2,r2,4
   8226c:	10c03fcc 	andi	r3,r2,255
   82270:	e0bff317 	ldw	r2,-52(fp)
   82274:	10c09e15 	stw	r3,632(r2)
			cea->db_vsdb_hdmi.addr_b = (int)(c[4] & 0x0f);
   82278:	e0bff817 	ldw	r2,-32(fp)
   8227c:	10800104 	addi	r2,r2,4
   82280:	10800003 	ldbu	r2,0(r2)
   82284:	10803fcc 	andi	r2,r2,255
   82288:	10c003cc 	andi	r3,r2,15
   8228c:	e0bff317 	ldw	r2,-52(fp)
   82290:	10c09f15 	stw	r3,636(r2)
			cea->db_vsdb_hdmi.addr_c = (int)(c[5] >> 4);
   82294:	e0bff817 	ldw	r2,-32(fp)
   82298:	10800144 	addi	r2,r2,5
   8229c:	10800003 	ldbu	r2,0(r2)
   822a0:	10803fcc 	andi	r2,r2,255
   822a4:	1004d13a 	srli	r2,r2,4
   822a8:	10c03fcc 	andi	r3,r2,255
   822ac:	e0bff317 	ldw	r2,-52(fp)
   822b0:	10c0a015 	stw	r3,640(r2)
			cea->db_vsdb_hdmi.addr_d = (int)(c[5] & 0x0f);
   822b4:	e0bff817 	ldw	r2,-32(fp)
   822b8:	10800144 	addi	r2,r2,5
   822bc:	10800003 	ldbu	r2,0(r2)
   822c0:	10803fcc 	andi	r2,r2,255
   822c4:	10c003cc 	andi	r3,r2,15
   822c8:	e0bff317 	ldw	r2,-52(fp)
   822cc:	10c0a115 	stw	r3,644(r2)

			if ((*c & 0x1f) >= 6) {
   822d0:	e0bff817 	ldw	r2,-32(fp)
   822d4:	10800003 	ldbu	r2,0(r2)
   822d8:	10803fcc 	andi	r2,r2,255
   822dc:	108007cc 	andi	r2,r2,31
   822e0:	10800190 	cmplti	r2,r2,6
   822e4:	1000311e 	bne	r2,zero,823ac <edid_decode_cea+0x770>
				cea->db_vsdb_hdmi.ai = (c[6] & 0x80) ? 1 : 0;
   822e8:	e0bff817 	ldw	r2,-32(fp)
   822ec:	10800184 	addi	r2,r2,6
   822f0:	10800003 	ldbu	r2,0(r2)
   822f4:	10803fcc 	andi	r2,r2,255
   822f8:	1080201c 	xori	r2,r2,128
   822fc:	10bfe004 	addi	r2,r2,-128
   82300:	1006d7fa 	srli	r3,r2,31
   82304:	e0bff317 	ldw	r2,-52(fp)
   82308:	10c0a215 	stw	r3,648(r2)
				cea->db_vsdb_hdmi.bpp48 = (c[6] & 0x40) ? 1 : 0;
   8230c:	e0bff817 	ldw	r2,-32(fp)
   82310:	10800184 	addi	r2,r2,6
   82314:	10800003 	ldbu	r2,0(r2)
   82318:	10803fcc 	andi	r2,r2,255
   8231c:	1080100c 	andi	r2,r2,64
   82320:	1006c03a 	cmpne	r3,r2,zero
   82324:	e0bff317 	ldw	r2,-52(fp)
   82328:	10c0a515 	stw	r3,660(r2)
				cea->db_vsdb_hdmi.bpp36 = (c[6] & 0x20) ? 1 : 0;
   8232c:	e0bff817 	ldw	r2,-32(fp)
   82330:	10800184 	addi	r2,r2,6
   82334:	10800003 	ldbu	r2,0(r2)
   82338:	10803fcc 	andi	r2,r2,255
   8233c:	1080080c 	andi	r2,r2,32
   82340:	1006c03a 	cmpne	r3,r2,zero
   82344:	e0bff317 	ldw	r2,-52(fp)
   82348:	10c0a415 	stw	r3,656(r2)
				cea->db_vsdb_hdmi.bpp30 = (c[6] & 0x10) ? 1 : 0;
   8234c:	e0bff817 	ldw	r2,-32(fp)
   82350:	10800184 	addi	r2,r2,6
   82354:	10800003 	ldbu	r2,0(r2)
   82358:	10803fcc 	andi	r2,r2,255
   8235c:	1080040c 	andi	r2,r2,16
   82360:	1006c03a 	cmpne	r3,r2,zero
   82364:	e0bff317 	ldw	r2,-52(fp)
   82368:	10c0a315 	stw	r3,652(r2)
				cea->db_vsdb_hdmi.ycbcr444 = (c[6] & 0x08) ? 1 : 0;
   8236c:	e0bff817 	ldw	r2,-32(fp)
   82370:	10800184 	addi	r2,r2,6
   82374:	10800003 	ldbu	r2,0(r2)
   82378:	10803fcc 	andi	r2,r2,255
   8237c:	1080020c 	andi	r2,r2,8
   82380:	1006c03a 	cmpne	r3,r2,zero
   82384:	e0bff317 	ldw	r2,-52(fp)
   82388:	10c0a615 	stw	r3,664(r2)
				cea->db_vsdb_hdmi.dvi_dual = (c[6] & 0x01) ? 1 : 0;
   8238c:	e0bff817 	ldw	r2,-32(fp)
   82390:	10800184 	addi	r2,r2,6
   82394:	10800003 	ldbu	r2,0(r2)
   82398:	10803fcc 	andi	r2,r2,255
   8239c:	10c0004c 	andi	r3,r2,1
   823a0:	e0bff317 	ldw	r2,-52(fp)
   823a4:	10c0a715 	stw	r3,668(r2)
   823a8:	00000c06 	br	823dc <edid_decode_cea+0x7a0>
			} else {
				cea->db_vsdb_hdmi.ai = 0;
   823ac:	e0bff317 	ldw	r2,-52(fp)
   823b0:	1000a215 	stw	zero,648(r2)
				cea->db_vsdb_hdmi.bpp48 = 0;
   823b4:	e0bff317 	ldw	r2,-52(fp)
   823b8:	1000a515 	stw	zero,660(r2)
				cea->db_vsdb_hdmi.bpp36 = 0;
   823bc:	e0bff317 	ldw	r2,-52(fp)
   823c0:	1000a415 	stw	zero,656(r2)
				cea->db_vsdb_hdmi.bpp30 = 0;
   823c4:	e0bff317 	ldw	r2,-52(fp)
   823c8:	1000a315 	stw	zero,652(r2)
				cea->db_vsdb_hdmi.ycbcr444 = 0;
   823cc:	e0bff317 	ldw	r2,-52(fp)
   823d0:	1000a615 	stw	zero,664(r2)
				cea->db_vsdb_hdmi.dvi_dual = 0;
   823d4:	e0bff317 	ldw	r2,-52(fp)
   823d8:	1000a715 	stw	zero,668(r2)
			}

			if ((*c & 0x1f) >= 7) {
   823dc:	e0bff817 	ldw	r2,-32(fp)
   823e0:	10800003 	ldbu	r2,0(r2)
   823e4:	10803fcc 	andi	r2,r2,255
   823e8:	108007cc 	andi	r2,r2,31
   823ec:	108001d0 	cmplti	r2,r2,7
   823f0:	1000081e 	bne	r2,zero,82414 <edid_decode_cea+0x7d8>
				cea->db_vsdb_hdmi.max_tmds_clk = c[7] * 5;
   823f4:	e0bff817 	ldw	r2,-32(fp)
   823f8:	108001c4 	addi	r2,r2,7
   823fc:	10800003 	ldbu	r2,0(r2)
   82400:	10803fcc 	andi	r2,r2,255
   82404:	10c00164 	muli	r3,r2,5
   82408:	e0bff317 	ldw	r2,-52(fp)
   8240c:	10c0ab15 	stw	r3,684(r2)
   82410:	00000206 	br	8241c <edid_decode_cea+0x7e0>
			} else {
				cea->db_vsdb_hdmi.max_tmds_clk = 0;
   82414:	e0bff317 	ldw	r2,-52(fp)
   82418:	1000ab15 	stw	zero,684(r2)
			}

			cea->db_vsdb_hdmi.p_latency = 0;
   8241c:	e0bff317 	ldw	r2,-52(fp)
   82420:	1000a815 	stw	zero,672(r2)
			cea->db_vsdb_hdmi.i_latency = 0;
   82424:	e0bff317 	ldw	r2,-52(fp)
   82428:	1000a915 	stw	zero,676(r2)
			cea->db_vsdb_hdmi.hdmi_video = 0;
   8242c:	e0bff317 	ldw	r2,-52(fp)
   82430:	1000aa15 	stw	zero,680(r2)

			cea->db_vsdb_hdmi.vid_latency_p = 0;
   82434:	e0bff317 	ldw	r2,-52(fp)
   82438:	1000ac15 	stw	zero,688(r2)
			cea->db_vsdb_hdmi.aud_latency_p = 0;
   8243c:	e0bff317 	ldw	r2,-52(fp)
   82440:	1000ad15 	stw	zero,692(r2)
			cea->db_vsdb_hdmi.vid_latency_i = 0;
   82444:	e0bff317 	ldw	r2,-52(fp)
   82448:	1000ae15 	stw	zero,696(r2)
			cea->db_vsdb_hdmi.aud_latency_i = 0;
   8244c:	e0bff317 	ldw	r2,-52(fp)
   82450:	1000af15 	stw	zero,700(r2)

			if ((*c & 0x1f) >= 8) {
   82454:	e0bff817 	ldw	r2,-32(fp)
   82458:	10800003 	ldbu	r2,0(r2)
   8245c:	10803fcc 	andi	r2,r2,255
   82460:	108007cc 	andi	r2,r2,31
   82464:	10800210 	cmplti	r2,r2,8
   82468:	1000421e 	bne	r2,zero,82574 <edid_decode_cea+0x938>
				u8 c8 = c[8];
   8246c:	e0bff817 	ldw	r2,-32(fp)
   82470:	10800204 	addi	r2,r2,8
   82474:	10800003 	ldbu	r2,0(r2)
   82478:	e0bff105 	stb	r2,-60(fp)
				hv = &c[9];
   8247c:	e0bff817 	ldw	r2,-32(fp)
   82480:	10800244 	addi	r2,r2,9
   82484:	e0bff715 	stw	r2,-36(fp)
				if (c8 & 0x80) {
   82488:	e0bff103 	ldbu	r2,-60(fp)
   8248c:	10803fcc 	andi	r2,r2,255
   82490:	1080201c 	xori	r2,r2,128
   82494:	10bfe004 	addi	r2,r2,-128
   82498:	1004403a 	cmpge	r2,r2,zero
   8249c:	1000151e 	bne	r2,zero,824f4 <edid_decode_cea+0x8b8>
					cea->db_vsdb_hdmi.p_latency = 1;
   824a0:	e0fff317 	ldw	r3,-52(fp)
   824a4:	00800044 	movi	r2,1
   824a8:	1880a815 	stw	r2,672(r3)
					cea->db_vsdb_hdmi.vid_latency_p = (hv[0] - 1) * 2;  // (ms)
   824ac:	e0bff717 	ldw	r2,-36(fp)
   824b0:	10800003 	ldbu	r2,0(r2)
   824b4:	10803fcc 	andi	r2,r2,255
   824b8:	1085883a 	add	r2,r2,r2
   824bc:	10ffff84 	addi	r3,r2,-2
   824c0:	e0bff317 	ldw	r2,-52(fp)
   824c4:	10c0ac15 	stw	r3,688(r2)
					cea->db_vsdb_hdmi.aud_latency_p = (hv[1] - 1) * 2;  // (ms)
   824c8:	e0bff717 	ldw	r2,-36(fp)
   824cc:	10800044 	addi	r2,r2,1
   824d0:	10800003 	ldbu	r2,0(r2)
   824d4:	10803fcc 	andi	r2,r2,255
   824d8:	1085883a 	add	r2,r2,r2
   824dc:	10ffff84 	addi	r3,r2,-2
   824e0:	e0bff317 	ldw	r2,-52(fp)
   824e4:	10c0ad15 	stw	r3,692(r2)
					hv += 2;
   824e8:	e0bff717 	ldw	r2,-36(fp)
   824ec:	10800084 	addi	r2,r2,2
   824f0:	e0bff715 	stw	r2,-36(fp)
				}
				if (c8 & 0x40) {
   824f4:	e0bff103 	ldbu	r2,-60(fp)
   824f8:	1080100c 	andi	r2,r2,64
   824fc:	1005003a 	cmpeq	r2,r2,zero
   82500:	1000151e 	bne	r2,zero,82558 <edid_decode_cea+0x91c>
					cea->db_vsdb_hdmi.i_latency = 1;
   82504:	e0fff317 	ldw	r3,-52(fp)
   82508:	00800044 	movi	r2,1
   8250c:	1880a915 	stw	r2,676(r3)
					cea->db_vsdb_hdmi.vid_latency_i = (hv[0] - 1) * 2;  // (ms)
   82510:	e0bff717 	ldw	r2,-36(fp)
   82514:	10800003 	ldbu	r2,0(r2)
   82518:	10803fcc 	andi	r2,r2,255
   8251c:	1085883a 	add	r2,r2,r2
   82520:	10ffff84 	addi	r3,r2,-2
   82524:	e0bff317 	ldw	r2,-52(fp)
   82528:	10c0ae15 	stw	r3,696(r2)
					cea->db_vsdb_hdmi.aud_latency_i = (hv[1] - 1) * 2;  // (ms)
   8252c:	e0bff717 	ldw	r2,-36(fp)
   82530:	10800044 	addi	r2,r2,1
   82534:	10800003 	ldbu	r2,0(r2)
   82538:	10803fcc 	andi	r2,r2,255
   8253c:	1085883a 	add	r2,r2,r2
   82540:	10ffff84 	addi	r3,r2,-2
   82544:	e0bff317 	ldw	r2,-52(fp)
   82548:	10c0af15 	stw	r3,700(r2)
					hv += 2;
   8254c:	e0bff717 	ldw	r2,-36(fp)
   82550:	10800084 	addi	r2,r2,2
   82554:	e0bff715 	stw	r2,-36(fp)
				}
				if (c8 & 0x20) {
   82558:	e0bff103 	ldbu	r2,-60(fp)
   8255c:	1080080c 	andi	r2,r2,32
   82560:	1005003a 	cmpeq	r2,r2,zero
   82564:	1000031e 	bne	r2,zero,82574 <edid_decode_cea+0x938>
					cea->db_vsdb_hdmi.hdmi_video = 1;
   82568:	e0fff317 	ldw	r3,-52(fp)
   8256c:	00800044 	movi	r2,1
   82570:	1880aa15 	stw	r2,680(r3)
				}
			}

			if (cea->db_vsdb_hdmi.hdmi_video > 0) {
   82574:	e0bff317 	ldw	r2,-52(fp)
   82578:	1080aa17 	ldw	r2,680(r2)
   8257c:	10800050 	cmplti	r2,r2,1
   82580:	1000281e 	bne	r2,zero,82624 <edid_decode_cea+0x9e8>
				cea->db_vsdb_hdmi.present_3d = hv[0] & 0x80 ? 1 : 0;
   82584:	e0bff717 	ldw	r2,-36(fp)
   82588:	10800003 	ldbu	r2,0(r2)
   8258c:	10803fcc 	andi	r2,r2,255
   82590:	1080201c 	xori	r2,r2,128
   82594:	10bfe004 	addi	r2,r2,-128
   82598:	1006d7fa 	srli	r3,r2,31
   8259c:	e0bff317 	ldw	r2,-52(fp)
   825a0:	10c0b015 	stw	r3,704(r2)
				cea->db_vsdb_hdmi.multi_3d = (hv[0] >> 5) & 0x03;
   825a4:	e0bff717 	ldw	r2,-36(fp)
   825a8:	10800003 	ldbu	r2,0(r2)
   825ac:	10803fcc 	andi	r2,r2,255
   825b0:	1004d17a 	srli	r2,r2,5
   825b4:	10803fcc 	andi	r2,r2,255
   825b8:	10c000cc 	andi	r3,r2,3
   825bc:	e0bff317 	ldw	r2,-52(fp)
   825c0:	10c0b115 	stw	r3,708(r2)
				cea->db_vsdb_hdmi.image_size = (hv[0] >> 3) & 0x03;
   825c4:	e0bff717 	ldw	r2,-36(fp)
   825c8:	10800003 	ldbu	r2,0(r2)
   825cc:	10803fcc 	andi	r2,r2,255
   825d0:	1004d0fa 	srli	r2,r2,3
   825d4:	10803fcc 	andi	r2,r2,255
   825d8:	10c000cc 	andi	r3,r2,3
   825dc:	e0bff317 	ldw	r2,-52(fp)
   825e0:	10c0b215 	stw	r3,712(r2)
				cea->db_vsdb_hdmi.hdmi_xx_len = hv[1] >> 5;
   825e4:	e0bff717 	ldw	r2,-36(fp)
   825e8:	10800044 	addi	r2,r2,1
   825ec:	10800003 	ldbu	r2,0(r2)
   825f0:	10803fcc 	andi	r2,r2,255
   825f4:	1004d17a 	srli	r2,r2,5
   825f8:	10c03fcc 	andi	r3,r2,255
   825fc:	e0bff317 	ldw	r2,-52(fp)
   82600:	10c0b315 	stw	r3,716(r2)
				cea->db_vsdb_hdmi.hdmi_3d_len = hv[1] & 0x1f;
   82604:	e0bff717 	ldw	r2,-36(fp)
   82608:	10800044 	addi	r2,r2,1
   8260c:	10800003 	ldbu	r2,0(r2)
   82610:	10803fcc 	andi	r2,r2,255
   82614:	10c007cc 	andi	r3,r2,31
   82618:	e0bff317 	ldw	r2,-52(fp)
   8261c:	10c0b415 	stw	r3,720(r2)
   82620:	00000a06 	br	8264c <edid_decode_cea+0xa10>
			} else {
				cea->db_vsdb_hdmi.present_3d = 0;
   82624:	e0bff317 	ldw	r2,-52(fp)
   82628:	1000b015 	stw	zero,704(r2)
				cea->db_vsdb_hdmi.multi_3d = 0;
   8262c:	e0bff317 	ldw	r2,-52(fp)
   82630:	1000b115 	stw	zero,708(r2)
				cea->db_vsdb_hdmi.image_size = 0;
   82634:	e0bff317 	ldw	r2,-52(fp)
   82638:	1000b215 	stw	zero,712(r2)
				cea->db_vsdb_hdmi.hdmi_xx_len = 0;
   8263c:	e0bff317 	ldw	r2,-52(fp)
   82640:	1000b315 	stw	zero,716(r2)
				cea->db_vsdb_hdmi.hdmi_3d_len = 0;
   82644:	e0bff317 	ldw	r2,-52(fp)
   82648:	1000b415 	stw	zero,720(r2)
			}

			if (cea->db_vsdb_hdmi.hdmi_3d_len > 0) {
   8264c:	e0bff317 	ldw	r2,-52(fp)
   82650:	1080b417 	ldw	r2,720(r2)
   82654:	10800050 	cmplti	r2,r2,1
   82658:	1000961e 	bne	r2,zero,828b4 <edid_decode_cea+0xc78>
				u8 *d = &hv[2 + cea->db_vsdb_hdmi.hdmi_xx_len];  // data pointer starting from 3D_Structure_ALL_15...8
   8265c:	e0bff317 	ldw	r2,-52(fp)
   82660:	1080b317 	ldw	r2,716(r2)
   82664:	1007883a 	mov	r3,r2
   82668:	e0bff717 	ldw	r2,-36(fp)
   8266c:	1885883a 	add	r2,r3,r2
   82670:	10800084 	addi	r2,r2,2
   82674:	e0bff015 	stw	r2,-64(fp)
				u8 *vic = 0;	// data pointer starting from 2D_VIC_Order_1 + 3D_Structure_1
   82678:	e03fef15 	stw	zero,-68(fp)
				int vic_l = 0;  // remaining 3D size starting from 2D_VIC_Order_1 + 3D_Structure_1
   8267c:	e03fee15 	stw	zero,-72(fp)

				if (cea->db_vsdb_hdmi.multi_3d == 2) {
   82680:	e0bff317 	ldw	r2,-52(fp)
   82684:	1080b117 	ldw	r2,708(r2)
   82688:	10800098 	cmpnei	r2,r2,2
   8268c:	10001f1e 	bne	r2,zero,8270c <edid_decode_cea+0xad0>
					cea->db_vsdb_hdmi.struct_all_3d = (d[0] << 8) | d[1];
   82690:	e0bff017 	ldw	r2,-64(fp)
   82694:	10800003 	ldbu	r2,0(r2)
   82698:	10803fcc 	andi	r2,r2,255
   8269c:	1006923a 	slli	r3,r2,8
   826a0:	e0bff017 	ldw	r2,-64(fp)
   826a4:	10800044 	addi	r2,r2,1
   826a8:	10800003 	ldbu	r2,0(r2)
   826ac:	10803fcc 	andi	r2,r2,255
   826b0:	1886b03a 	or	r3,r3,r2
   826b4:	e0bff317 	ldw	r2,-52(fp)
   826b8:	10c0b515 	stw	r3,724(r2)
					cea->db_vsdb_hdmi.mask_3d = (d[2] << 8) | d[3];
   826bc:	e0bff017 	ldw	r2,-64(fp)
   826c0:	10800084 	addi	r2,r2,2
   826c4:	10800003 	ldbu	r2,0(r2)
   826c8:	10803fcc 	andi	r2,r2,255
   826cc:	1006923a 	slli	r3,r2,8
   826d0:	e0bff017 	ldw	r2,-64(fp)
   826d4:	108000c4 	addi	r2,r2,3
   826d8:	10800003 	ldbu	r2,0(r2)
   826dc:	10803fcc 	andi	r2,r2,255
   826e0:	1886b03a 	or	r3,r3,r2
   826e4:	e0bff317 	ldw	r2,-52(fp)
   826e8:	10c0b615 	stw	r3,728(r2)
					vic = &d[4];
   826ec:	e0bff017 	ldw	r2,-64(fp)
   826f0:	10800104 	addi	r2,r2,4
   826f4:	e0bfef15 	stw	r2,-68(fp)
					vic_l = cea->db_vsdb_hdmi.hdmi_3d_len - 4;
   826f8:	e0bff317 	ldw	r2,-52(fp)
   826fc:	1080b417 	ldw	r2,720(r2)
   82700:	10bfff04 	addi	r2,r2,-4
   82704:	e0bfee15 	stw	r2,-72(fp)
   82708:	00001d06 	br	82780 <edid_decode_cea+0xb44>
				} else if (cea->db_vsdb_hdmi.multi_3d == 1) {
   8270c:	e0bff317 	ldw	r2,-52(fp)
   82710:	1080b117 	ldw	r2,708(r2)
   82714:	10800058 	cmpnei	r2,r2,1
   82718:	1000151e 	bne	r2,zero,82770 <edid_decode_cea+0xb34>
					cea->db_vsdb_hdmi.struct_all_3d = (d[0] << 8) | d[1];
   8271c:	e0bff017 	ldw	r2,-64(fp)
   82720:	10800003 	ldbu	r2,0(r2)
   82724:	10803fcc 	andi	r2,r2,255
   82728:	1006923a 	slli	r3,r2,8
   8272c:	e0bff017 	ldw	r2,-64(fp)
   82730:	10800044 	addi	r2,r2,1
   82734:	10800003 	ldbu	r2,0(r2)
   82738:	10803fcc 	andi	r2,r2,255
   8273c:	1886b03a 	or	r3,r3,r2
   82740:	e0bff317 	ldw	r2,-52(fp)
   82744:	10c0b515 	stw	r3,724(r2)
					cea->db_vsdb_hdmi.mask_3d = 0;
   82748:	e0bff317 	ldw	r2,-52(fp)
   8274c:	1000b615 	stw	zero,728(r2)
					vic = &d[2];
   82750:	e0bff017 	ldw	r2,-64(fp)
   82754:	10800084 	addi	r2,r2,2
   82758:	e0bfef15 	stw	r2,-68(fp)
					vic_l = cea->db_vsdb_hdmi.hdmi_3d_len - 2;
   8275c:	e0bff317 	ldw	r2,-52(fp)
   82760:	1080b417 	ldw	r2,720(r2)
   82764:	10bfff84 	addi	r2,r2,-2
   82768:	e0bfee15 	stw	r2,-72(fp)
   8276c:	00000406 	br	82780 <edid_decode_cea+0xb44>
				} else {
					cea->db_vsdb_hdmi.struct_all_3d = 0;
   82770:	e0bff317 	ldw	r2,-52(fp)
   82774:	1000b515 	stw	zero,724(r2)
					cea->db_vsdb_hdmi.mask_3d = 0;
   82778:	e0bff317 	ldw	r2,-52(fp)
   8277c:	1000b615 	stw	zero,728(r2)
				}

				cea->db_vsdb_hdmi.nr_vic_3d = 0;
   82780:	e0bff317 	ldw	r2,-52(fp)
   82784:	1000b715 	stw	zero,732(r2)
				while (vic_l > 0) {
   82788:	00004606 	br	828a4 <edid_decode_cea+0xc68>
					cea->db_vsdb_hdmi.vic_3d[cea->db_vsdb_hdmi.nr_vic_3d].vic_2d = vic[0] >> 4;
   8278c:	e0bff317 	ldw	r2,-52(fp)
   82790:	1140b717 	ldw	r5,732(r2)
   82794:	e0bfef17 	ldw	r2,-68(fp)
   82798:	10800003 	ldbu	r2,0(r2)
   8279c:	10803fcc 	andi	r2,r2,255
   827a0:	1004d13a 	srli	r2,r2,4
   827a4:	11003fcc 	andi	r4,r2,255
   827a8:	e0fff317 	ldw	r3,-52(fp)
   827ac:	28800324 	muli	r2,r5,12
   827b0:	10c5883a 	add	r2,r2,r3
   827b4:	1080b804 	addi	r2,r2,736
   827b8:	11000015 	stw	r4,0(r2)
					cea->db_vsdb_hdmi.vic_3d[cea->db_vsdb_hdmi.nr_vic_3d].struct_3d = vic[0] & 0x0f;
   827bc:	e0bff317 	ldw	r2,-52(fp)
   827c0:	1140b717 	ldw	r5,732(r2)
   827c4:	e0bfef17 	ldw	r2,-68(fp)
   827c8:	10800003 	ldbu	r2,0(r2)
   827cc:	10803fcc 	andi	r2,r2,255
   827d0:	110003cc 	andi	r4,r2,15
   827d4:	e0fff317 	ldw	r3,-52(fp)
   827d8:	28800324 	muli	r2,r5,12
   827dc:	10c5883a 	add	r2,r2,r3
   827e0:	1080b904 	addi	r2,r2,740
   827e4:	11000015 	stw	r4,0(r2)
					if (cea->db_vsdb_hdmi.vic_3d[cea->db_vsdb_hdmi.nr_vic_3d].struct_3d >= 0x08) {
   827e8:	e0bff317 	ldw	r2,-52(fp)
   827ec:	1080b717 	ldw	r2,732(r2)
   827f0:	e0fff317 	ldw	r3,-52(fp)
   827f4:	10800324 	muli	r2,r2,12
   827f8:	10c5883a 	add	r2,r2,r3
   827fc:	1080b904 	addi	r2,r2,740
   82800:	10800017 	ldw	r2,0(r2)
   82804:	10800210 	cmplti	r2,r2,8
   82808:	1000141e 	bne	r2,zero,8285c <edid_decode_cea+0xc20>
						cea->db_vsdb_hdmi.vic_3d[cea->db_vsdb_hdmi.nr_vic_3d].detail_3d = vic[1] >> 4;
   8280c:	e0bff317 	ldw	r2,-52(fp)
   82810:	1140b717 	ldw	r5,732(r2)
   82814:	e0bfef17 	ldw	r2,-68(fp)
   82818:	10800044 	addi	r2,r2,1
   8281c:	10800003 	ldbu	r2,0(r2)
   82820:	10803fcc 	andi	r2,r2,255
   82824:	1004d13a 	srli	r2,r2,4
   82828:	11003fcc 	andi	r4,r2,255
   8282c:	e0fff317 	ldw	r3,-52(fp)
   82830:	28800324 	muli	r2,r5,12
   82834:	10c5883a 	add	r2,r2,r3
   82838:	1080ba04 	addi	r2,r2,744
   8283c:	11000015 	stw	r4,0(r2)
						vic += 2;
   82840:	e0bfef17 	ldw	r2,-68(fp)
   82844:	10800084 	addi	r2,r2,2
   82848:	e0bfef15 	stw	r2,-68(fp)
						vic_l -= 2;
   8284c:	e0bfee17 	ldw	r2,-72(fp)
   82850:	10bfff84 	addi	r2,r2,-2
   82854:	e0bfee15 	stw	r2,-72(fp)
   82858:	00000d06 	br	82890 <edid_decode_cea+0xc54>
					} else {
						cea->db_vsdb_hdmi.vic_3d[cea->db_vsdb_hdmi.nr_vic_3d].detail_3d = 0;
   8285c:	e0bff317 	ldw	r2,-52(fp)
   82860:	1080b717 	ldw	r2,732(r2)
   82864:	e0fff317 	ldw	r3,-52(fp)
   82868:	10800324 	muli	r2,r2,12
   8286c:	10c5883a 	add	r2,r2,r3
   82870:	1080ba04 	addi	r2,r2,744
   82874:	10000015 	stw	zero,0(r2)
						++vic;
   82878:	e0bfef17 	ldw	r2,-68(fp)
   8287c:	10800044 	addi	r2,r2,1
   82880:	e0bfef15 	stw	r2,-68(fp)
						--vic_l;
   82884:	e0bfee17 	ldw	r2,-72(fp)
   82888:	10bfffc4 	addi	r2,r2,-1
   8288c:	e0bfee15 	stw	r2,-72(fp)
					}
					++cea->db_vsdb_hdmi.nr_vic_3d;
   82890:	e0bff317 	ldw	r2,-52(fp)
   82894:	1080b717 	ldw	r2,732(r2)
   82898:	10c00044 	addi	r3,r2,1
   8289c:	e0bff317 	ldw	r2,-52(fp)
   828a0:	10c0b715 	stw	r3,732(r2)
					cea->db_vsdb_hdmi.struct_all_3d = 0;
					cea->db_vsdb_hdmi.mask_3d = 0;
				}

				cea->db_vsdb_hdmi.nr_vic_3d = 0;
				while (vic_l > 0) {
   828a4:	e0bfee17 	ldw	r2,-72(fp)
   828a8:	10800048 	cmpgei	r2,r2,1
   828ac:	103fb71e 	bne	r2,zero,8278c <edid_decode_cea+0xb50>
   828b0:	00000406 	br	828c4 <edid_decode_cea+0xc88>
						--vic_l;
					}
					++cea->db_vsdb_hdmi.nr_vic_3d;
				}
			} else {
				cea->db_vsdb_hdmi.struct_all_3d = 0;
   828b4:	e0bff317 	ldw	r2,-52(fp)
   828b8:	1000b515 	stw	zero,724(r2)
				cea->db_vsdb_hdmi.mask_3d = 0;
   828bc:	e0bff317 	ldw	r2,-52(fp)
   828c0:	1000b615 	stw	zero,728(r2)
			}

			c += (*c & 0x1f) + 1;
   828c4:	e0bff817 	ldw	r2,-32(fp)
   828c8:	10800003 	ldbu	r2,0(r2)
   828cc:	10803fcc 	andi	r2,r2,255
   828d0:	108007cc 	andi	r2,r2,31
   828d4:	1007883a 	mov	r3,r2
   828d8:	e0bff817 	ldw	r2,-32(fp)
   828dc:	1885883a 	add	r2,r3,r2
   828e0:	10800044 	addi	r2,r2,1
   828e4:	e0bff815 	stw	r2,-32(fp)
			break;
   828e8:	0000de06 	br	82c64 <edid_decode_cea+0x1028>

		case CEA_DB_SPEAKER:
			cea->dbc_tags[cea->nr_dbcs++] = CEA_DB_SPEAKER;
   828ec:	e0bff317 	ldw	r2,-52(fp)
   828f0:	11000717 	ldw	r4,28(r2)
   828f4:	e0bff317 	ldw	r2,-52(fp)
   828f8:	2085883a 	add	r2,r4,r2
   828fc:	10c00804 	addi	r3,r2,32
   82900:	00800104 	movi	r2,4
   82904:	18800005 	stb	r2,0(r3)
   82908:	20c00044 	addi	r3,r4,1
   8290c:	e0bff317 	ldw	r2,-52(fp)
   82910:	10c00715 	stw	r3,28(r2)
			cea->db_speaker.designation = (int)(c[1] & 0x7f);
   82914:	e0bff817 	ldw	r2,-32(fp)
   82918:	10800044 	addi	r2,r2,1
   8291c:	10800003 	ldbu	r2,0(r2)
   82920:	10803fcc 	andi	r2,r2,255
   82924:	10c01fcc 	andi	r3,r2,127
   82928:	e0bff317 	ldw	r2,-52(fp)
   8292c:	10c09b15 	stw	r3,620(r2)
			c += (*c & 0x1f) + 1;
   82930:	e0bff817 	ldw	r2,-32(fp)
   82934:	10800003 	ldbu	r2,0(r2)
   82938:	10803fcc 	andi	r2,r2,255
   8293c:	108007cc 	andi	r2,r2,31
   82940:	1007883a 	mov	r3,r2
   82944:	e0bff817 	ldw	r2,-32(fp)
   82948:	1885883a 	add	r2,r3,r2
   8294c:	10800044 	addi	r2,r2,1
   82950:	e0bff815 	stw	r2,-32(fp)
			break;
   82954:	0000c306 	br	82c64 <edid_decode_cea+0x1028>

		case CEA_DB_DTC:
			cea->dbc_tags[cea->nr_dbcs++] = CEA_DB_DTC;
   82958:	e0bff317 	ldw	r2,-52(fp)
   8295c:	11000717 	ldw	r4,28(r2)
   82960:	e0bff317 	ldw	r2,-52(fp)
   82964:	2085883a 	add	r2,r4,r2
   82968:	10c00804 	addi	r3,r2,32
   8296c:	00800144 	movi	r2,5
   82970:	18800005 	stb	r2,0(r3)
   82974:	20c00044 	addi	r3,r4,1
   82978:	e0bff317 	ldw	r2,-52(fp)
   8297c:	10c00715 	stw	r3,28(r2)
			c += (*c & 0x1f) + 1;
   82980:	e0bff817 	ldw	r2,-32(fp)
   82984:	10800003 	ldbu	r2,0(r2)
   82988:	10803fcc 	andi	r2,r2,255
   8298c:	108007cc 	andi	r2,r2,31
   82990:	1007883a 	mov	r3,r2
   82994:	e0bff817 	ldw	r2,-32(fp)
   82998:	1885883a 	add	r2,r3,r2
   8299c:	10800044 	addi	r2,r2,1
   829a0:	e0bff815 	stw	r2,-32(fp)
			break;
   829a4:	0000af06 	br	82c64 <edid_decode_cea+0x1028>

		case CEA_DB_EXTENDED:
			switch (c[1]) {
   829a8:	e0bff817 	ldw	r2,-32(fp)
   829ac:	10800044 	addi	r2,r2,1
   829b0:	10800003 	ldbu	r2,0(r2)
   829b4:	10803fcc 	andi	r2,r2,255
   829b8:	e0bffd15 	stw	r2,-12(fp)
   829bc:	e0fffd17 	ldw	r3,-12(fp)
   829c0:	188004e8 	cmpgeui	r2,r3,19
   829c4:	1000911e 	bne	r2,zero,82c0c <edid_decode_cea+0xfd0>
   829c8:	e13ffd17 	ldw	r4,-12(fp)
   829cc:	e13ffd17 	ldw	r4,-12(fp)
   829d0:	2105883a 	add	r2,r4,r4
   829d4:	1087883a 	add	r3,r2,r2
   829d8:	00800234 	movhi	r2,8
   829dc:	108a7b04 	addi	r2,r2,10732
   829e0:	1885883a 	add	r2,r3,r2
   829e4:	10800017 	ldw	r2,0(r2)
   829e8:	1000683a 	jmp	r2
   829ec:	00082a38 	rdprs	zero,zero,8360
   829f0:	00082ad8 	cmpnei	zero,zero,8363
   829f4:	00082af8 	rdprs	zero,zero,8363
   829f8:	00082b18 	cmpnei	zero,zero,8364
   829fc:	00082b38 	rdprs	zero,zero,8364
   82a00:	00082b58 	cmpnei	zero,zero,8365
   82a04:	00082c0c 	andi	zero,zero,8368
   82a08:	00082c0c 	andi	zero,zero,8368
   82a0c:	00082c0c 	andi	zero,zero,8368
   82a10:	00082c0c 	andi	zero,zero,8368
   82a14:	00082c0c 	andi	zero,zero,8368
   82a18:	00082c0c 	andi	zero,zero,8368
   82a1c:	00082c0c 	andi	zero,zero,8368
   82a20:	00082c0c 	andi	zero,zero,8368
   82a24:	00082c0c 	andi	zero,zero,8368
   82a28:	00082c0c 	andi	zero,zero,8368
   82a2c:	00082bb0 	cmpltui	zero,zero,8366
   82a30:	00082bd0 	cmplti	zero,zero,8367
   82a34:	00082bf0 	cmpltui	zero,zero,8367
			case CEA_DBE_VIDEO_CAP:
				cea->dbe_tags[cea->nr_dbcs] = CEA_DBE_VIDEO_CAP;
   82a38:	e0bff317 	ldw	r2,-52(fp)
   82a3c:	10c00717 	ldw	r3,28(r2)
   82a40:	e0bff317 	ldw	r2,-52(fp)
   82a44:	1885883a 	add	r2,r3,r2
   82a48:	10801704 	addi	r2,r2,92
   82a4c:	10000085 	stb	zero,2(r2)
				cea->db_vcdb.quant_range_sel = (c[2] & 0x40) ? 1 : 0;
   82a50:	e0bff817 	ldw	r2,-32(fp)
   82a54:	10800084 	addi	r2,r2,2
   82a58:	10800003 	ldbu	r2,0(r2)
   82a5c:	10803fcc 	andi	r2,r2,255
   82a60:	1080100c 	andi	r2,r2,64
   82a64:	1006c03a 	cmpne	r3,r2,zero
   82a68:	e0bff317 	ldw	r2,-52(fp)
   82a6c:	10c0ea15 	stw	r3,936(r2)
				cea->db_vcdb.pt_scan_behavior = (int)((c[2] >> 4) & 0x03);
   82a70:	e0bff817 	ldw	r2,-32(fp)
   82a74:	10800084 	addi	r2,r2,2
   82a78:	10800003 	ldbu	r2,0(r2)
   82a7c:	10803fcc 	andi	r2,r2,255
   82a80:	1004d13a 	srli	r2,r2,4
   82a84:	10803fcc 	andi	r2,r2,255
   82a88:	10c000cc 	andi	r3,r2,3
   82a8c:	e0bff317 	ldw	r2,-52(fp)
   82a90:	10c0eb15 	stw	r3,940(r2)
				cea->db_vcdb.it_scan_behavior = (int)((c[2] >> 2) & 0x03);
   82a94:	e0bff817 	ldw	r2,-32(fp)
   82a98:	10800084 	addi	r2,r2,2
   82a9c:	10800003 	ldbu	r2,0(r2)
   82aa0:	10803fcc 	andi	r2,r2,255
   82aa4:	1004d0ba 	srli	r2,r2,2
   82aa8:	10803fcc 	andi	r2,r2,255
   82aac:	10c000cc 	andi	r3,r2,3
   82ab0:	e0bff317 	ldw	r2,-52(fp)
   82ab4:	10c0ec15 	stw	r3,944(r2)
				cea->db_vcdb.ce_scan_behavior = (int)(c[2] & 0x03);
   82ab8:	e0bff817 	ldw	r2,-32(fp)
   82abc:	10800084 	addi	r2,r2,2
   82ac0:	10800003 	ldbu	r2,0(r2)
   82ac4:	10803fcc 	andi	r2,r2,255
   82ac8:	10c000cc 	andi	r3,r2,3
   82acc:	e0bff317 	ldw	r2,-52(fp)
   82ad0:	10c0ed15 	stw	r3,948(r2)
				break;
   82ad4:	00004d06 	br	82c0c <edid_decode_cea+0xfd0>
			case CEA_DBE_VIDEO_VENDOR:
				cea->dbe_tags[cea->nr_dbcs] = CEA_DBE_VIDEO_VENDOR;
   82ad8:	e0bff317 	ldw	r2,-52(fp)
   82adc:	10c00717 	ldw	r3,28(r2)
   82ae0:	e0bff317 	ldw	r2,-52(fp)
   82ae4:	1885883a 	add	r2,r3,r2
   82ae8:	10c01704 	addi	r3,r2,92
   82aec:	00800044 	movi	r2,1
   82af0:	18800085 	stb	r2,2(r3)
				break;
   82af4:	00004506 	br	82c0c <edid_decode_cea+0xfd0>
			case CEA_DBE_VIDEO_DDI:
				cea->dbe_tags[cea->nr_dbcs] = CEA_DBE_VIDEO_DDI;
   82af8:	e0bff317 	ldw	r2,-52(fp)
   82afc:	10c00717 	ldw	r3,28(r2)
   82b00:	e0bff317 	ldw	r2,-52(fp)
   82b04:	1885883a 	add	r2,r3,r2
   82b08:	10c01704 	addi	r3,r2,92
   82b0c:	00800084 	movi	r2,2
   82b10:	18800085 	stb	r2,2(r3)
				break;
   82b14:	00003d06 	br	82c0c <edid_decode_cea+0xfd0>
			case CEA_DBE_VIDEO_VESA:
				cea->dbe_tags[cea->nr_dbcs] = CEA_DBE_VIDEO_VESA;
   82b18:	e0bff317 	ldw	r2,-52(fp)
   82b1c:	10c00717 	ldw	r3,28(r2)
   82b20:	e0bff317 	ldw	r2,-52(fp)
   82b24:	1885883a 	add	r2,r3,r2
   82b28:	10c01704 	addi	r3,r2,92
   82b2c:	008000c4 	movi	r2,3
   82b30:	18800085 	stb	r2,2(r3)
				break;
   82b34:	00003506 	br	82c0c <edid_decode_cea+0xfd0>
			case CEA_DBE_VIDEO_HDMI:
				cea->dbe_tags[cea->nr_dbcs] = CEA_DBE_VIDEO_HDMI;
   82b38:	e0bff317 	ldw	r2,-52(fp)
   82b3c:	10c00717 	ldw	r3,28(r2)
   82b40:	e0bff317 	ldw	r2,-52(fp)
   82b44:	1885883a 	add	r2,r3,r2
   82b48:	10c01704 	addi	r3,r2,92
   82b4c:	00800104 	movi	r2,4
   82b50:	18800085 	stb	r2,2(r3)
				break;
   82b54:	00002d06 	br	82c0c <edid_decode_cea+0xfd0>
			case CEA_DBE_COLORIMETRY:
				cea->dbe_tags[cea->nr_dbcs] = CEA_DBE_COLORIMETRY;
   82b58:	e0bff317 	ldw	r2,-52(fp)
   82b5c:	10c00717 	ldw	r3,28(r2)
   82b60:	e0bff317 	ldw	r2,-52(fp)
   82b64:	1885883a 	add	r2,r3,r2
   82b68:	10c01704 	addi	r3,r2,92
   82b6c:	00800144 	movi	r2,5
   82b70:	18800085 	stb	r2,2(r3)
				cea->db_colorimetry.xvYCC = (int)(c[2] & 0x03);
   82b74:	e0bff817 	ldw	r2,-32(fp)
   82b78:	10800084 	addi	r2,r2,2
   82b7c:	10800003 	ldbu	r2,0(r2)
   82b80:	10803fcc 	andi	r2,r2,255
   82b84:	10c000cc 	andi	r3,r2,3
   82b88:	e0bff317 	ldw	r2,-52(fp)
   82b8c:	10c0e815 	stw	r3,928(r2)
				cea->db_colorimetry.metadata = (int)(c[3] & 0x07);
   82b90:	e0bff817 	ldw	r2,-32(fp)
   82b94:	108000c4 	addi	r2,r2,3
   82b98:	10800003 	ldbu	r2,0(r2)
   82b9c:	10803fcc 	andi	r2,r2,255
   82ba0:	10c001cc 	andi	r3,r2,7
   82ba4:	e0bff317 	ldw	r2,-52(fp)
   82ba8:	10c0e915 	stw	r3,932(r2)
				break;
   82bac:	00001706 	br	82c0c <edid_decode_cea+0xfd0>
			case CEA_DBE_AUDIO_MISC:
				cea->dbe_tags[cea->nr_dbcs] = CEA_DBE_AUDIO_MISC;
   82bb0:	e0bff317 	ldw	r2,-52(fp)
   82bb4:	10c00717 	ldw	r3,28(r2)
   82bb8:	e0bff317 	ldw	r2,-52(fp)
   82bbc:	1885883a 	add	r2,r3,r2
   82bc0:	10c01704 	addi	r3,r2,92
   82bc4:	00800404 	movi	r2,16
   82bc8:	18800085 	stb	r2,2(r3)
				break;
   82bcc:	00000f06 	br	82c0c <edid_decode_cea+0xfd0>
			case CEA_DBE_AUDIO_VENDOR:
				cea->dbe_tags[cea->nr_dbcs] = CEA_DBE_AUDIO_VENDOR;
   82bd0:	e0bff317 	ldw	r2,-52(fp)
   82bd4:	10c00717 	ldw	r3,28(r2)
   82bd8:	e0bff317 	ldw	r2,-52(fp)
   82bdc:	1885883a 	add	r2,r3,r2
   82be0:	10c01704 	addi	r3,r2,92
   82be4:	00800444 	movi	r2,17
   82be8:	18800085 	stb	r2,2(r3)
				break;
   82bec:	00000706 	br	82c0c <edid_decode_cea+0xfd0>
			case CEA_DBE_AUDIO_HDMI:
				cea->dbe_tags[cea->nr_dbcs] = CEA_DBE_AUDIO_HDMI;
   82bf0:	e0bff317 	ldw	r2,-52(fp)
   82bf4:	10c00717 	ldw	r3,28(r2)
   82bf8:	e0bff317 	ldw	r2,-52(fp)
   82bfc:	1885883a 	add	r2,r3,r2
   82c00:	10c01704 	addi	r3,r2,92
   82c04:	00800484 	movi	r2,18
   82c08:	18800085 	stb	r2,2(r3)
				break;
			}

			cea->dbc_tags[cea->nr_dbcs++] = CEA_DB_EXTENDED;
   82c0c:	e0bff317 	ldw	r2,-52(fp)
   82c10:	11000717 	ldw	r4,28(r2)
   82c14:	e0bff317 	ldw	r2,-52(fp)
   82c18:	2085883a 	add	r2,r4,r2
   82c1c:	10c00804 	addi	r3,r2,32
   82c20:	008001c4 	movi	r2,7
   82c24:	18800005 	stb	r2,0(r3)
   82c28:	20c00044 	addi	r3,r4,1
   82c2c:	e0bff317 	ldw	r2,-52(fp)
   82c30:	10c00715 	stw	r3,28(r2)

			c += (*c & 0x1f) + 1;
   82c34:	e0bff817 	ldw	r2,-32(fp)
   82c38:	10800003 	ldbu	r2,0(r2)
   82c3c:	10803fcc 	andi	r2,r2,255
   82c40:	108007cc 	andi	r2,r2,31
   82c44:	1007883a 	mov	r3,r2
   82c48:	e0bff817 	ldw	r2,-32(fp)
   82c4c:	1885883a 	add	r2,r3,r2
   82c50:	10800044 	addi	r2,r2,1
   82c54:	e0bff815 	stw	r2,-32(fp)
			break;
   82c58:	00000206 	br	82c64 <edid_decode_cea+0x1028>

		default:
			c = dtd;
   82c5c:	e0bff617 	ldw	r2,-40(fp)
   82c60:	e0bff815 	stw	r2,-32(fp)

	// data block collection
	c = &ext_bin[4];

	cea->nr_dbcs = 0;
	while (c < dtd) {
   82c64:	e0fff817 	ldw	r3,-32(fp)
   82c68:	e0bff617 	ldw	r2,-40(fp)
   82c6c:	18bc6136 	bltu	r3,r2,81df4 <edid_decode_cea+0x1b8>
			break;
		}
	}

	// detail timing descriptor
	if (dtd == 0)
   82c70:	e0bff617 	ldw	r2,-40(fp)
   82c74:	1004c03a 	cmpne	r2,r2,zero
   82c78:	1000021e 	bne	r2,zero,82c84 <edid_decode_cea+0x1048>
		return 0;
   82c7c:	e03fff15 	stw	zero,-4(fp)
   82c80:	00022d06 	br	83538 <edid_decode_cea+0x18fc>

	for (i = 0; i < (int)cea->nr_dtd; ++i) {
   82c84:	e03ff515 	stw	zero,-44(fp)
   82c88:	00022606 	br	83524 <edid_decode_cea+0x18e8>
		c = &dtd[18 * i];
   82c8c:	e0bff517 	ldw	r2,-44(fp)
   82c90:	108004a4 	muli	r2,r2,18
   82c94:	1007883a 	mov	r3,r2
   82c98:	e0bff617 	ldw	r2,-40(fp)
   82c9c:	1885883a 	add	r2,r3,r2
   82ca0:	e0bff815 	stw	r2,-32(fp)

        cea->detailed_timing[i].pixel_clock = (((int)c[1] << 8) | (int)c[0]) * 10000;
   82ca4:	e17ff517 	ldw	r5,-44(fp)
   82ca8:	e0bff817 	ldw	r2,-32(fp)
   82cac:	10800044 	addi	r2,r2,1
   82cb0:	10800003 	ldbu	r2,0(r2)
   82cb4:	10803fcc 	andi	r2,r2,255
   82cb8:	1006923a 	slli	r3,r2,8
   82cbc:	e0bff817 	ldw	r2,-32(fp)
   82cc0:	10800003 	ldbu	r2,0(r2)
   82cc4:	10803fcc 	andi	r2,r2,255
   82cc8:	1884b03a 	or	r2,r3,r2
   82ccc:	1109c424 	muli	r4,r2,10000
   82cd0:	e0fff317 	ldw	r3,-52(fp)
   82cd4:	280491ba 	slli	r2,r5,6
   82cd8:	10c5883a 	add	r2,r2,r3
   82cdc:	1080ee04 	addi	r2,r2,952
   82ce0:	11000015 	stw	r4,0(r2)
        cea->detailed_timing[i].width = (((int)c[4] << 4) & 0xf00) | (int)c[2];
   82ce4:	e17ff517 	ldw	r5,-44(fp)
   82ce8:	e0bff817 	ldw	r2,-32(fp)
   82cec:	10800104 	addi	r2,r2,4
   82cf0:	10800003 	ldbu	r2,0(r2)
   82cf4:	10803fcc 	andi	r2,r2,255
   82cf8:	1004913a 	slli	r2,r2,4
   82cfc:	10c3c00c 	andi	r3,r2,3840
   82d00:	e0bff817 	ldw	r2,-32(fp)
   82d04:	10800084 	addi	r2,r2,2
   82d08:	10800003 	ldbu	r2,0(r2)
   82d0c:	10803fcc 	andi	r2,r2,255
   82d10:	1888b03a 	or	r4,r3,r2
   82d14:	e0fff317 	ldw	r3,-52(fp)
   82d18:	280491ba 	slli	r2,r5,6
   82d1c:	10c5883a 	add	r2,r2,r3
   82d20:	1080ef04 	addi	r2,r2,956
   82d24:	11000015 	stw	r4,0(r2)
        cea->detailed_timing[i].height = (((int)c[7] << 4) & 0xf00) | (int)c[5];
   82d28:	e17ff517 	ldw	r5,-44(fp)
   82d2c:	e0bff817 	ldw	r2,-32(fp)
   82d30:	108001c4 	addi	r2,r2,7
   82d34:	10800003 	ldbu	r2,0(r2)
   82d38:	10803fcc 	andi	r2,r2,255
   82d3c:	1004913a 	slli	r2,r2,4
   82d40:	10c3c00c 	andi	r3,r2,3840
   82d44:	e0bff817 	ldw	r2,-32(fp)
   82d48:	10800144 	addi	r2,r2,5
   82d4c:	10800003 	ldbu	r2,0(r2)
   82d50:	10803fcc 	andi	r2,r2,255
   82d54:	1888b03a 	or	r4,r3,r2
   82d58:	e0fff317 	ldw	r3,-52(fp)
   82d5c:	280491ba 	slli	r2,r5,6
   82d60:	10c5883a 	add	r2,r2,r3
   82d64:	1080f004 	addi	r2,r2,960
   82d68:	11000015 	stw	r4,0(r2)
        cea->detailed_timing[i].h_blank = (((int)c[4] << 8) & 0xf00) | (int)c[3];
   82d6c:	e17ff517 	ldw	r5,-44(fp)
   82d70:	e0bff817 	ldw	r2,-32(fp)
   82d74:	10800104 	addi	r2,r2,4
   82d78:	10800003 	ldbu	r2,0(r2)
   82d7c:	10803fcc 	andi	r2,r2,255
   82d80:	1004923a 	slli	r2,r2,8
   82d84:	10c3c00c 	andi	r3,r2,3840
   82d88:	e0bff817 	ldw	r2,-32(fp)
   82d8c:	108000c4 	addi	r2,r2,3
   82d90:	10800003 	ldbu	r2,0(r2)
   82d94:	10803fcc 	andi	r2,r2,255
   82d98:	1888b03a 	or	r4,r3,r2
   82d9c:	e0fff317 	ldw	r3,-52(fp)
   82da0:	280491ba 	slli	r2,r5,6
   82da4:	10c5883a 	add	r2,r2,r3
   82da8:	1080f104 	addi	r2,r2,964
   82dac:	11000015 	stw	r4,0(r2)
        cea->detailed_timing[i].v_blank = (((int)c[7] << 8) & 0xf00) | (int)c[6];
   82db0:	e17ff517 	ldw	r5,-44(fp)
   82db4:	e0bff817 	ldw	r2,-32(fp)
   82db8:	108001c4 	addi	r2,r2,7
   82dbc:	10800003 	ldbu	r2,0(r2)
   82dc0:	10803fcc 	andi	r2,r2,255
   82dc4:	1004923a 	slli	r2,r2,8
   82dc8:	10c3c00c 	andi	r3,r2,3840
   82dcc:	e0bff817 	ldw	r2,-32(fp)
   82dd0:	10800184 	addi	r2,r2,6
   82dd4:	10800003 	ldbu	r2,0(r2)
   82dd8:	10803fcc 	andi	r2,r2,255
   82ddc:	1888b03a 	or	r4,r3,r2
   82de0:	e0fff317 	ldw	r3,-52(fp)
   82de4:	280491ba 	slli	r2,r5,6
   82de8:	10c5883a 	add	r2,r2,r3
   82dec:	1080f204 	addi	r2,r2,968
   82df0:	11000015 	stw	r4,0(r2)
        cea->detailed_timing[i].h_fp = (((int)c[11] << 2) & 0x300) | (int)c[8];
   82df4:	e17ff517 	ldw	r5,-44(fp)
   82df8:	e0bff817 	ldw	r2,-32(fp)
   82dfc:	108002c4 	addi	r2,r2,11
   82e00:	10800003 	ldbu	r2,0(r2)
   82e04:	10803fcc 	andi	r2,r2,255
   82e08:	1085883a 	add	r2,r2,r2
   82e0c:	1085883a 	add	r2,r2,r2
   82e10:	10c0c00c 	andi	r3,r2,768
   82e14:	e0bff817 	ldw	r2,-32(fp)
   82e18:	10800204 	addi	r2,r2,8
   82e1c:	10800003 	ldbu	r2,0(r2)
   82e20:	10803fcc 	andi	r2,r2,255
   82e24:	1888b03a 	or	r4,r3,r2
   82e28:	e0fff317 	ldw	r3,-52(fp)
   82e2c:	280491ba 	slli	r2,r5,6
   82e30:	10c5883a 	add	r2,r2,r3
   82e34:	1080f304 	addi	r2,r2,972
   82e38:	11000015 	stw	r4,0(r2)
        cea->detailed_timing[i].v_fp = (((int)c[11] << 2) & 0x30) | ((int)c[10] >> 4);
   82e3c:	e17ff517 	ldw	r5,-44(fp)
   82e40:	e0bff817 	ldw	r2,-32(fp)
   82e44:	108002c4 	addi	r2,r2,11
   82e48:	10800003 	ldbu	r2,0(r2)
   82e4c:	10803fcc 	andi	r2,r2,255
   82e50:	1085883a 	add	r2,r2,r2
   82e54:	1085883a 	add	r2,r2,r2
   82e58:	10c00c0c 	andi	r3,r2,48
   82e5c:	e0bff817 	ldw	r2,-32(fp)
   82e60:	10800284 	addi	r2,r2,10
   82e64:	10800003 	ldbu	r2,0(r2)
   82e68:	10803fcc 	andi	r2,r2,255
   82e6c:	1004d13a 	srli	r2,r2,4
   82e70:	10803fcc 	andi	r2,r2,255
   82e74:	1888b03a 	or	r4,r3,r2
   82e78:	e0fff317 	ldw	r3,-52(fp)
   82e7c:	280491ba 	slli	r2,r5,6
   82e80:	10c5883a 	add	r2,r2,r3
   82e84:	1080f404 	addi	r2,r2,976
   82e88:	11000015 	stw	r4,0(r2)
        cea->detailed_timing[i].h_sync = (((int)c[11] << 4) & 0x300) | (int)c[9];
   82e8c:	e17ff517 	ldw	r5,-44(fp)
   82e90:	e0bff817 	ldw	r2,-32(fp)
   82e94:	108002c4 	addi	r2,r2,11
   82e98:	10800003 	ldbu	r2,0(r2)
   82e9c:	10803fcc 	andi	r2,r2,255
   82ea0:	1004913a 	slli	r2,r2,4
   82ea4:	10c0c00c 	andi	r3,r2,768
   82ea8:	e0bff817 	ldw	r2,-32(fp)
   82eac:	10800244 	addi	r2,r2,9
   82eb0:	10800003 	ldbu	r2,0(r2)
   82eb4:	10803fcc 	andi	r2,r2,255
   82eb8:	1888b03a 	or	r4,r3,r2
   82ebc:	e0fff317 	ldw	r3,-52(fp)
   82ec0:	280491ba 	slli	r2,r5,6
   82ec4:	10c5883a 	add	r2,r2,r3
   82ec8:	1080f504 	addi	r2,r2,980
   82ecc:	11000015 	stw	r4,0(r2)
        cea->detailed_timing[i].v_sync = (((int)c[11] << 4) & 0x30) | ((int)c[10] & 0x0f);
   82ed0:	e17ff517 	ldw	r5,-44(fp)
   82ed4:	e0bff817 	ldw	r2,-32(fp)
   82ed8:	108002c4 	addi	r2,r2,11
   82edc:	10800003 	ldbu	r2,0(r2)
   82ee0:	10803fcc 	andi	r2,r2,255
   82ee4:	1004913a 	slli	r2,r2,4
   82ee8:	10c00c0c 	andi	r3,r2,48
   82eec:	e0bff817 	ldw	r2,-32(fp)
   82ef0:	10800284 	addi	r2,r2,10
   82ef4:	10800003 	ldbu	r2,0(r2)
   82ef8:	10803fcc 	andi	r2,r2,255
   82efc:	108003cc 	andi	r2,r2,15
   82f00:	1888b03a 	or	r4,r3,r2
   82f04:	e0fff317 	ldw	r3,-52(fp)
   82f08:	280491ba 	slli	r2,r5,6
   82f0c:	10c5883a 	add	r2,r2,r3
   82f10:	1080f604 	addi	r2,r2,984
   82f14:	11000015 	stw	r4,0(r2)
        cea->detailed_timing[i].h_size = (((int)c[14] << 4) & 0xf00) | (int)c[12];
   82f18:	e17ff517 	ldw	r5,-44(fp)
   82f1c:	e0bff817 	ldw	r2,-32(fp)
   82f20:	10800384 	addi	r2,r2,14
   82f24:	10800003 	ldbu	r2,0(r2)
   82f28:	10803fcc 	andi	r2,r2,255
   82f2c:	1004913a 	slli	r2,r2,4
   82f30:	10c3c00c 	andi	r3,r2,3840
   82f34:	e0bff817 	ldw	r2,-32(fp)
   82f38:	10800304 	addi	r2,r2,12
   82f3c:	10800003 	ldbu	r2,0(r2)
   82f40:	10803fcc 	andi	r2,r2,255
   82f44:	1888b03a 	or	r4,r3,r2
   82f48:	e0fff317 	ldw	r3,-52(fp)
   82f4c:	280491ba 	slli	r2,r5,6
   82f50:	10c5883a 	add	r2,r2,r3
   82f54:	1080f704 	addi	r2,r2,988
   82f58:	11000015 	stw	r4,0(r2)
        cea->detailed_timing[i].v_size = (((int)c[14] << 8) & 0xf00) | (int)c[13];
   82f5c:	e17ff517 	ldw	r5,-44(fp)
   82f60:	e0bff817 	ldw	r2,-32(fp)
   82f64:	10800384 	addi	r2,r2,14
   82f68:	10800003 	ldbu	r2,0(r2)
   82f6c:	10803fcc 	andi	r2,r2,255
   82f70:	1004923a 	slli	r2,r2,8
   82f74:	10c3c00c 	andi	r3,r2,3840
   82f78:	e0bff817 	ldw	r2,-32(fp)
   82f7c:	10800344 	addi	r2,r2,13
   82f80:	10800003 	ldbu	r2,0(r2)
   82f84:	10803fcc 	andi	r2,r2,255
   82f88:	1888b03a 	or	r4,r3,r2
   82f8c:	e0fff317 	ldw	r3,-52(fp)
   82f90:	280491ba 	slli	r2,r5,6
   82f94:	10c5883a 	add	r2,r2,r3
   82f98:	1080f804 	addi	r2,r2,992
   82f9c:	11000015 	stw	r4,0(r2)
        cea->detailed_timing[i].border_lr = (int)c[15];
   82fa0:	e17ff517 	ldw	r5,-44(fp)
   82fa4:	e0bff817 	ldw	r2,-32(fp)
   82fa8:	108003c4 	addi	r2,r2,15
   82fac:	10800003 	ldbu	r2,0(r2)
   82fb0:	11003fcc 	andi	r4,r2,255
   82fb4:	e0fff317 	ldw	r3,-52(fp)
   82fb8:	280491ba 	slli	r2,r5,6
   82fbc:	10c5883a 	add	r2,r2,r3
   82fc0:	1080f904 	addi	r2,r2,996
   82fc4:	11000015 	stw	r4,0(r2)
        cea->detailed_timing[i].border_tb = (int)c[16];
   82fc8:	e17ff517 	ldw	r5,-44(fp)
   82fcc:	e0bff817 	ldw	r2,-32(fp)
   82fd0:	10800404 	addi	r2,r2,16
   82fd4:	10800003 	ldbu	r2,0(r2)
   82fd8:	11003fcc 	andi	r4,r2,255
   82fdc:	e0fff317 	ldw	r3,-52(fp)
   82fe0:	280491ba 	slli	r2,r5,6
   82fe4:	10c5883a 	add	r2,r2,r3
   82fe8:	1080fa04 	addi	r2,r2,1000
   82fec:	11000015 	stw	r4,0(r2)

        cea->detailed_timing[i].interlaced = (c[17] & 0x80) ? 1 : 0;
   82ff0:	e17ff517 	ldw	r5,-44(fp)
   82ff4:	e0bff817 	ldw	r2,-32(fp)
   82ff8:	10800444 	addi	r2,r2,17
   82ffc:	10800003 	ldbu	r2,0(r2)
   83000:	10803fcc 	andi	r2,r2,255
   83004:	1080201c 	xori	r2,r2,128
   83008:	10bfe004 	addi	r2,r2,-128
   8300c:	1008d7fa 	srli	r4,r2,31
   83010:	e0fff317 	ldw	r3,-52(fp)
   83014:	280491ba 	slli	r2,r5,6
   83018:	10c5883a 	add	r2,r2,r3
   8301c:	1080fb04 	addi	r2,r2,1004
   83020:	11000015 	stw	r4,0(r2)

        cea->detailed_timing[i].stereo = STEREO_NONE;
   83024:	e0bff517 	ldw	r2,-44(fp)
   83028:	e0fff317 	ldw	r3,-52(fp)
   8302c:	100491ba 	slli	r2,r2,6
   83030:	10c5883a 	add	r2,r2,r3
   83034:	1080fc04 	addi	r2,r2,1008
   83038:	10000015 	stw	zero,0(r2)
		if ((c[17] & 0x61) == 0x20)
   8303c:	e0bff817 	ldw	r2,-32(fp)
   83040:	10800444 	addi	r2,r2,17
   83044:	10800003 	ldbu	r2,0(r2)
   83048:	10803fcc 	andi	r2,r2,255
   8304c:	1080184c 	andi	r2,r2,97
   83050:	10800818 	cmpnei	r2,r2,32
   83054:	10000d1e 	bne	r2,zero,8308c <edid_decode_cea+0x1450>
			cea->detailed_timing[i].stereo |= STEREO_FIELD_SEQUENTIAL_RIGHT_SYNC;
   83058:	e17ff517 	ldw	r5,-44(fp)
   8305c:	e0bff517 	ldw	r2,-44(fp)
   83060:	e0fff317 	ldw	r3,-52(fp)
   83064:	100491ba 	slli	r2,r2,6
   83068:	10c5883a 	add	r2,r2,r3
   8306c:	1080fc04 	addi	r2,r2,1008
   83070:	10800017 	ldw	r2,0(r2)
   83074:	11000094 	ori	r4,r2,2
   83078:	e0fff317 	ldw	r3,-52(fp)
   8307c:	280491ba 	slli	r2,r5,6
   83080:	10c5883a 	add	r2,r2,r3
   83084:	1080fc04 	addi	r2,r2,1008
   83088:	11000015 	stw	r4,0(r2)
		if ((c[17] & 0x61) == 0x40)
   8308c:	e0bff817 	ldw	r2,-32(fp)
   83090:	10800444 	addi	r2,r2,17
   83094:	10800003 	ldbu	r2,0(r2)
   83098:	10803fcc 	andi	r2,r2,255
   8309c:	1080184c 	andi	r2,r2,97
   830a0:	10801018 	cmpnei	r2,r2,64
   830a4:	10000d1e 	bne	r2,zero,830dc <edid_decode_cea+0x14a0>
			cea->detailed_timing[i].stereo |= STEREO_FIELD_SEQUENTIAL_LEFT_SYNC;
   830a8:	e17ff517 	ldw	r5,-44(fp)
   830ac:	e0bff517 	ldw	r2,-44(fp)
   830b0:	e0fff317 	ldw	r3,-52(fp)
   830b4:	100491ba 	slli	r2,r2,6
   830b8:	10c5883a 	add	r2,r2,r3
   830bc:	1080fc04 	addi	r2,r2,1008
   830c0:	10800017 	ldw	r2,0(r2)
   830c4:	11000114 	ori	r4,r2,4
   830c8:	e0fff317 	ldw	r3,-52(fp)
   830cc:	280491ba 	slli	r2,r5,6
   830d0:	10c5883a 	add	r2,r2,r3
   830d4:	1080fc04 	addi	r2,r2,1008
   830d8:	11000015 	stw	r4,0(r2)
		if ((c[17] & 0x61) == 0x21)
   830dc:	e0bff817 	ldw	r2,-32(fp)
   830e0:	10800444 	addi	r2,r2,17
   830e4:	10800003 	ldbu	r2,0(r2)
   830e8:	10803fcc 	andi	r2,r2,255
   830ec:	1080184c 	andi	r2,r2,97
   830f0:	10800858 	cmpnei	r2,r2,33
   830f4:	10000d1e 	bne	r2,zero,8312c <edid_decode_cea+0x14f0>
			cea->detailed_timing[i].stereo |= STEREO_2WAY_INTERLEAVE_RIGHT_EVEN;
   830f8:	e17ff517 	ldw	r5,-44(fp)
   830fc:	e0bff517 	ldw	r2,-44(fp)
   83100:	e0fff317 	ldw	r3,-52(fp)
   83104:	100491ba 	slli	r2,r2,6
   83108:	10c5883a 	add	r2,r2,r3
   8310c:	1080fc04 	addi	r2,r2,1008
   83110:	10800017 	ldw	r2,0(r2)
   83114:	11000214 	ori	r4,r2,8
   83118:	e0fff317 	ldw	r3,-52(fp)
   8311c:	280491ba 	slli	r2,r5,6
   83120:	10c5883a 	add	r2,r2,r3
   83124:	1080fc04 	addi	r2,r2,1008
   83128:	11000015 	stw	r4,0(r2)
		if ((c[17] & 0x61) == 0x41)
   8312c:	e0bff817 	ldw	r2,-32(fp)
   83130:	10800444 	addi	r2,r2,17
   83134:	10800003 	ldbu	r2,0(r2)
   83138:	10803fcc 	andi	r2,r2,255
   8313c:	1080184c 	andi	r2,r2,97
   83140:	10801058 	cmpnei	r2,r2,65
   83144:	10000d1e 	bne	r2,zero,8317c <edid_decode_cea+0x1540>
			cea->detailed_timing[i].stereo |= STEREO_2WAY_INTERLEAVE_LEFT_EVEN;
   83148:	e17ff517 	ldw	r5,-44(fp)
   8314c:	e0bff517 	ldw	r2,-44(fp)
   83150:	e0fff317 	ldw	r3,-52(fp)
   83154:	100491ba 	slli	r2,r2,6
   83158:	10c5883a 	add	r2,r2,r3
   8315c:	1080fc04 	addi	r2,r2,1008
   83160:	10800017 	ldw	r2,0(r2)
   83164:	11000414 	ori	r4,r2,16
   83168:	e0fff317 	ldw	r3,-52(fp)
   8316c:	280491ba 	slli	r2,r5,6
   83170:	10c5883a 	add	r2,r2,r3
   83174:	1080fc04 	addi	r2,r2,1008
   83178:	11000015 	stw	r4,0(r2)
		if ((c[17] & 0x61) == 0x60)
   8317c:	e0bff817 	ldw	r2,-32(fp)
   83180:	10800444 	addi	r2,r2,17
   83184:	10800003 	ldbu	r2,0(r2)
   83188:	10803fcc 	andi	r2,r2,255
   8318c:	1080184c 	andi	r2,r2,97
   83190:	10801818 	cmpnei	r2,r2,96
   83194:	10000d1e 	bne	r2,zero,831cc <edid_decode_cea+0x1590>
			cea->detailed_timing[i].stereo |= STEREO_4WAY_INTERLEAVE;
   83198:	e17ff517 	ldw	r5,-44(fp)
   8319c:	e0bff517 	ldw	r2,-44(fp)
   831a0:	e0fff317 	ldw	r3,-52(fp)
   831a4:	100491ba 	slli	r2,r2,6
   831a8:	10c5883a 	add	r2,r2,r3
   831ac:	1080fc04 	addi	r2,r2,1008
   831b0:	10800017 	ldw	r2,0(r2)
   831b4:	11000814 	ori	r4,r2,32
   831b8:	e0fff317 	ldw	r3,-52(fp)
   831bc:	280491ba 	slli	r2,r5,6
   831c0:	10c5883a 	add	r2,r2,r3
   831c4:	1080fc04 	addi	r2,r2,1008
   831c8:	11000015 	stw	r4,0(r2)
		if ((c[17] & 0x61) == 0x61)
   831cc:	e0bff817 	ldw	r2,-32(fp)
   831d0:	10800444 	addi	r2,r2,17
   831d4:	10800003 	ldbu	r2,0(r2)
   831d8:	10803fcc 	andi	r2,r2,255
   831dc:	1080184c 	andi	r2,r2,97
   831e0:	10801858 	cmpnei	r2,r2,97
   831e4:	10000d1e 	bne	r2,zero,8321c <edid_decode_cea+0x15e0>
			cea->detailed_timing[i].stereo |= STEREO_SIDE_BY_SIDE_INTERLEAVE;
   831e8:	e17ff517 	ldw	r5,-44(fp)
   831ec:	e0bff517 	ldw	r2,-44(fp)
   831f0:	e0fff317 	ldw	r3,-52(fp)
   831f4:	100491ba 	slli	r2,r2,6
   831f8:	10c5883a 	add	r2,r2,r3
   831fc:	1080fc04 	addi	r2,r2,1008
   83200:	10800017 	ldw	r2,0(r2)
   83204:	11001014 	ori	r4,r2,64
   83208:	e0fff317 	ldw	r3,-52(fp)
   8320c:	280491ba 	slli	r2,r5,6
   83210:	10c5883a 	add	r2,r2,r3
   83214:	1080fc04 	addi	r2,r2,1008
   83218:	11000015 	stw	r4,0(r2)

		cea->detailed_timing[i].sync = 0;
   8321c:	e0bff517 	ldw	r2,-44(fp)
   83220:	e0fff317 	ldw	r3,-52(fp)
   83224:	100491ba 	slli	r2,r2,6
   83228:	10c5883a 	add	r2,r2,r3
   8322c:	1080fd04 	addi	r2,r2,1012
   83230:	10000015 	stw	zero,0(r2)
        if (c[17] & 0x10) {
   83234:	e0bff817 	ldw	r2,-32(fp)
   83238:	10800444 	addi	r2,r2,17
   8323c:	10800003 	ldbu	r2,0(r2)
   83240:	10803fcc 	andi	r2,r2,255
   83244:	1080040c 	andi	r2,r2,16
   83248:	1005003a 	cmpeq	r2,r2,zero
   8324c:	1000591e 	bne	r2,zero,833b4 <edid_decode_cea+0x1778>
            if (c[17] & 0x08) {
   83250:	e0bff817 	ldw	r2,-32(fp)
   83254:	10800444 	addi	r2,r2,17
   83258:	10800003 	ldbu	r2,0(r2)
   8325c:	10803fcc 	andi	r2,r2,255
   83260:	1080020c 	andi	r2,r2,8
   83264:	1005003a 	cmpeq	r2,r2,zero
   83268:	1000301e 	bne	r2,zero,8332c <edid_decode_cea+0x16f0>
            	cea->detailed_timing[i].sync |= D_SEPERATE_SYNC;
   8326c:	e17ff517 	ldw	r5,-44(fp)
   83270:	e0bff517 	ldw	r2,-44(fp)
   83274:	e0fff317 	ldw	r3,-52(fp)
   83278:	100491ba 	slli	r2,r2,6
   8327c:	10c5883a 	add	r2,r2,r3
   83280:	1080fd04 	addi	r2,r2,1012
   83284:	10800017 	ldw	r2,0(r2)
   83288:	11002014 	ori	r4,r2,128
   8328c:	e0fff317 	ldw	r3,-52(fp)
   83290:	280491ba 	slli	r2,r5,6
   83294:	10c5883a 	add	r2,r2,r3
   83298:	1080fd04 	addi	r2,r2,1012
   8329c:	11000015 	stw	r4,0(r2)
            	if (c[17] & 0x04)
   832a0:	e0bff817 	ldw	r2,-32(fp)
   832a4:	10800444 	addi	r2,r2,17
   832a8:	10800003 	ldbu	r2,0(r2)
   832ac:	10803fcc 	andi	r2,r2,255
   832b0:	1080010c 	andi	r2,r2,4
   832b4:	1005003a 	cmpeq	r2,r2,zero
   832b8:	10000e1e 	bne	r2,zero,832f4 <edid_decode_cea+0x16b8>
                	cea->detailed_timing[i].sync |= D_SEPERATE_VSYNC_P;
   832bc:	e17ff517 	ldw	r5,-44(fp)
   832c0:	e0bff517 	ldw	r2,-44(fp)
   832c4:	e0fff317 	ldw	r3,-52(fp)
   832c8:	100491ba 	slli	r2,r2,6
   832cc:	10c5883a 	add	r2,r2,r3
   832d0:	1080fd04 	addi	r2,r2,1012
   832d4:	10800017 	ldw	r2,0(r2)
   832d8:	11008014 	ori	r4,r2,512
   832dc:	e0fff317 	ldw	r3,-52(fp)
   832e0:	280491ba 	slli	r2,r5,6
   832e4:	10c5883a 	add	r2,r2,r3
   832e8:	1080fd04 	addi	r2,r2,1012
   832ec:	11000015 	stw	r4,0(r2)
   832f0:	00008906 	br	83518 <edid_decode_cea+0x18dc>
            	else
            		cea->detailed_timing[i].sync |= D_SEPERATE_VSYNC_N;
   832f4:	e17ff517 	ldw	r5,-44(fp)
   832f8:	e0bff517 	ldw	r2,-44(fp)
   832fc:	e0fff317 	ldw	r3,-52(fp)
   83300:	100491ba 	slli	r2,r2,6
   83304:	10c5883a 	add	r2,r2,r3
   83308:	1080fd04 	addi	r2,r2,1012
   8330c:	10800017 	ldw	r2,0(r2)
   83310:	11004014 	ori	r4,r2,256
   83314:	e0fff317 	ldw	r3,-52(fp)
   83318:	280491ba 	slli	r2,r5,6
   8331c:	10c5883a 	add	r2,r2,r3
   83320:	1080fd04 	addi	r2,r2,1012
   83324:	11000015 	stw	r4,0(r2)
   83328:	00007b06 	br	83518 <edid_decode_cea+0x18dc>
            } else {
            	cea->detailed_timing[i].sync |= D_COMPOSITE_SYNC;
   8332c:	e17ff517 	ldw	r5,-44(fp)
   83330:	e0bff517 	ldw	r2,-44(fp)
   83334:	e0fff317 	ldw	r3,-52(fp)
   83338:	100491ba 	slli	r2,r2,6
   8333c:	10c5883a 	add	r2,r2,r3
   83340:	1080fd04 	addi	r2,r2,1012
   83344:	10800017 	ldw	r2,0(r2)
   83348:	11000814 	ori	r4,r2,32
   8334c:	e0fff317 	ldw	r3,-52(fp)
   83350:	280491ba 	slli	r2,r5,6
   83354:	10c5883a 	add	r2,r2,r3
   83358:	1080fd04 	addi	r2,r2,1012
   8335c:	11000015 	stw	r4,0(r2)
            	if (c[17] & 0x04)
   83360:	e0bff817 	ldw	r2,-32(fp)
   83364:	10800444 	addi	r2,r2,17
   83368:	10800003 	ldbu	r2,0(r2)
   8336c:	10803fcc 	andi	r2,r2,255
   83370:	1080010c 	andi	r2,r2,4
   83374:	1005003a 	cmpeq	r2,r2,zero
   83378:	1000671e 	bne	r2,zero,83518 <edid_decode_cea+0x18dc>
                	cea->detailed_timing[i].sync |= D_COMPOSITE_SERRATION;
   8337c:	e17ff517 	ldw	r5,-44(fp)
   83380:	e0bff517 	ldw	r2,-44(fp)
   83384:	e0fff317 	ldw	r3,-52(fp)
   83388:	100491ba 	slli	r2,r2,6
   8338c:	10c5883a 	add	r2,r2,r3
   83390:	1080fd04 	addi	r2,r2,1012
   83394:	10800017 	ldw	r2,0(r2)
   83398:	11001014 	ori	r4,r2,64
   8339c:	e0fff317 	ldw	r3,-52(fp)
   833a0:	280491ba 	slli	r2,r5,6
   833a4:	10c5883a 	add	r2,r2,r3
   833a8:	1080fd04 	addi	r2,r2,1012
   833ac:	11000015 	stw	r4,0(r2)
   833b0:	00005906 	br	83518 <edid_decode_cea+0x18dc>
            }
        } else {
        	if (c[17] & 0x80) {
   833b4:	e0bff817 	ldw	r2,-32(fp)
   833b8:	10800444 	addi	r2,r2,17
   833bc:	10800003 	ldbu	r2,0(r2)
   833c0:	10803fcc 	andi	r2,r2,255
   833c4:	1080201c 	xori	r2,r2,128
   833c8:	10bfe004 	addi	r2,r2,-128
   833cc:	1004403a 	cmpge	r2,r2,zero
   833d0:	1000441e 	bne	r2,zero,834e4 <edid_decode_cea+0x18a8>
        		cea->detailed_timing[i].sync |= A_BIPOLAR_COMPOSITE_SYNC;
   833d4:	e17ff517 	ldw	r5,-44(fp)
   833d8:	e0bff517 	ldw	r2,-44(fp)
   833dc:	e0fff317 	ldw	r3,-52(fp)
   833e0:	100491ba 	slli	r2,r2,6
   833e4:	10c5883a 	add	r2,r2,r3
   833e8:	1080fd04 	addi	r2,r2,1012
   833ec:	10800017 	ldw	r2,0(r2)
   833f0:	11000094 	ori	r4,r2,2
   833f4:	e0fff317 	ldw	r3,-52(fp)
   833f8:	280491ba 	slli	r2,r5,6
   833fc:	10c5883a 	add	r2,r2,r3
   83400:	1080fd04 	addi	r2,r2,1012
   83404:	11000015 	stw	r4,0(r2)
        		if (c[17] & 0x40) {
   83408:	e0bff817 	ldw	r2,-32(fp)
   8340c:	10800444 	addi	r2,r2,17
   83410:	10800003 	ldbu	r2,0(r2)
   83414:	10803fcc 	andi	r2,r2,255
   83418:	1080100c 	andi	r2,r2,64
   8341c:	1005003a 	cmpeq	r2,r2,zero
   83420:	10003d1e 	bne	r2,zero,83518 <edid_decode_cea+0x18dc>
            		cea->detailed_timing[i].sync |= A_BIPOLAR_SERRATION;
   83424:	e17ff517 	ldw	r5,-44(fp)
   83428:	e0bff517 	ldw	r2,-44(fp)
   8342c:	e0fff317 	ldw	r3,-52(fp)
   83430:	100491ba 	slli	r2,r2,6
   83434:	10c5883a 	add	r2,r2,r3
   83438:	1080fd04 	addi	r2,r2,1012
   8343c:	10800017 	ldw	r2,0(r2)
   83440:	11000114 	ori	r4,r2,4
   83444:	e0fff317 	ldw	r3,-52(fp)
   83448:	280491ba 	slli	r2,r5,6
   8344c:	10c5883a 	add	r2,r2,r3
   83450:	1080fd04 	addi	r2,r2,1012
   83454:	11000015 	stw	r4,0(r2)
            		if (c[17] & 0x20)
   83458:	e0bff817 	ldw	r2,-32(fp)
   8345c:	10800444 	addi	r2,r2,17
   83460:	10800003 	ldbu	r2,0(r2)
   83464:	10803fcc 	andi	r2,r2,255
   83468:	1080080c 	andi	r2,r2,32
   8346c:	1005003a 	cmpeq	r2,r2,zero
   83470:	10000e1e 	bne	r2,zero,834ac <edid_decode_cea+0x1870>
                		cea->detailed_timing[i].sync |= A_BIPOLAR_SERRATION_SYNC_RGB;
   83474:	e17ff517 	ldw	r5,-44(fp)
   83478:	e0bff517 	ldw	r2,-44(fp)
   8347c:	e0fff317 	ldw	r3,-52(fp)
   83480:	100491ba 	slli	r2,r2,6
   83484:	10c5883a 	add	r2,r2,r3
   83488:	1080fd04 	addi	r2,r2,1012
   8348c:	10800017 	ldw	r2,0(r2)
   83490:	11000414 	ori	r4,r2,16
   83494:	e0fff317 	ldw	r3,-52(fp)
   83498:	280491ba 	slli	r2,r5,6
   8349c:	10c5883a 	add	r2,r2,r3
   834a0:	1080fd04 	addi	r2,r2,1012
   834a4:	11000015 	stw	r4,0(r2)
   834a8:	00001b06 	br	83518 <edid_decode_cea+0x18dc>
            		else
                		cea->detailed_timing[i].sync |= A_BIPOLAR_SERRATION_SYNC_G;
   834ac:	e17ff517 	ldw	r5,-44(fp)
   834b0:	e0bff517 	ldw	r2,-44(fp)
   834b4:	e0fff317 	ldw	r3,-52(fp)
   834b8:	100491ba 	slli	r2,r2,6
   834bc:	10c5883a 	add	r2,r2,r3
   834c0:	1080fd04 	addi	r2,r2,1012
   834c4:	10800017 	ldw	r2,0(r2)
   834c8:	11000214 	ori	r4,r2,8
   834cc:	e0fff317 	ldw	r3,-52(fp)
   834d0:	280491ba 	slli	r2,r5,6
   834d4:	10c5883a 	add	r2,r2,r3
   834d8:	1080fd04 	addi	r2,r2,1012
   834dc:	11000015 	stw	r4,0(r2)
   834e0:	00000d06 	br	83518 <edid_decode_cea+0x18dc>
        		}
        	} else {
        		cea->detailed_timing[i].sync |= A_COMPOSITE_SYNC;
   834e4:	e17ff517 	ldw	r5,-44(fp)
   834e8:	e0bff517 	ldw	r2,-44(fp)
   834ec:	e0fff317 	ldw	r3,-52(fp)
   834f0:	100491ba 	slli	r2,r2,6
   834f4:	10c5883a 	add	r2,r2,r3
   834f8:	1080fd04 	addi	r2,r2,1012
   834fc:	10800017 	ldw	r2,0(r2)
   83500:	11000054 	ori	r4,r2,1
   83504:	e0fff317 	ldw	r3,-52(fp)
   83508:	280491ba 	slli	r2,r5,6
   8350c:	10c5883a 	add	r2,r2,r3
   83510:	1080fd04 	addi	r2,r2,1012
   83514:	11000015 	stw	r4,0(r2)

	// detail timing descriptor
	if (dtd == 0)
		return 0;

	for (i = 0; i < (int)cea->nr_dtd; ++i) {
   83518:	e0bff517 	ldw	r2,-44(fp)
   8351c:	10800044 	addi	r2,r2,1
   83520:	e0bff515 	stw	r2,-44(fp)
   83524:	e0bff317 	ldw	r2,-52(fp)
   83528:	10c00617 	ldw	r3,24(r2)
   8352c:	e0bff517 	ldw	r2,-44(fp)
   83530:	10fdd616 	blt	r2,r3,82c8c <edid_decode_cea+0x1050>
        		cea->detailed_timing[i].sync |= A_COMPOSITE_SYNC;
        	}
        }
	}

	return 0;
   83534:	e03fff15 	stw	zero,-4(fp)
   83538:	e0bfff17 	ldw	r2,-4(fp)
}
   8353c:	e037883a 	mov	sp,fp
   83540:	dfc00117 	ldw	ra,4(sp)
   83544:	df000017 	ldw	fp,0(sp)
   83548:	dec00204 	addi	sp,sp,8
   8354c:	f800283a 	ret

00083550 <edid_print_cea>:

void edid_print_cea(struct base_edid *edid, int ext_idx)
{
   83550:	deffcf04 	addi	sp,sp,-196
   83554:	de00012e 	bgeu	sp,et,8355c <edid_print_cea+0xc>
   83558:	003da0fa 	break	3
   8355c:	dfc03015 	stw	ra,192(sp)
   83560:	df002f15 	stw	fp,188(sp)
   83564:	df002f04 	addi	fp,sp,188
   83568:	e13fdb15 	stw	r4,-148(fp)
   8356c:	e17fdc15 	stw	r5,-144(fp)
	u8 *c, *dtd = 0;
   83570:	e03fd915 	stw	zero,-156(fp)
	int i, t;

	struct ext_data *ext_data = &edid->ext_data[ext_idx];
   83574:	e0bfdb17 	ldw	r2,-148(fp)
   83578:	10c60b04 	addi	r3,r2,6188
   8357c:	e0bfdc17 	ldw	r2,-144(fp)
   83580:	10816f24 	muli	r2,r2,1468
   83584:	1885883a 	add	r2,r3,r2
   83588:	e0bfd615 	stw	r2,-168(fp)
	struct edid_cea *cea = &ext_data->cea_ext;
   8358c:	e0bfd617 	ldw	r2,-168(fp)
   83590:	10800104 	addi	r2,r2,4
   83594:	e0bfd515 	stw	r2,-172(fp)

	printf("\n[%02d] extension block -- CEA-Extension Revision-%02d ...\n\n", ext_idx, cea->rev);
   83598:	e0bfd517 	ldw	r2,-172(fp)
   8359c:	11800017 	ldw	r6,0(r2)
   835a0:	010002b4 	movhi	r4,10
   835a4:	212e0204 	addi	r4,r4,-18424
   835a8:	e17fdc17 	ldw	r5,-144(fp)
   835ac:	008ee340 	call	8ee34 <printf>

	printf("  number of DBCs (data block collections)      : %d\n", cea->nr_dbcs);
   835b0:	e0bfd517 	ldw	r2,-172(fp)
   835b4:	11400717 	ldw	r5,28(r2)
   835b8:	010002b4 	movhi	r4,10
   835bc:	212e1204 	addi	r4,r4,-18360
   835c0:	008ee340 	call	8ee34 <printf>
	printf("  number of DTDs (detailed timing descriptors) : %d\n", cea->nr_dtd);
   835c4:	e0bfd517 	ldw	r2,-172(fp)
   835c8:	11400617 	ldw	r5,24(r2)
   835cc:	010002b4 	movhi	r4,10
   835d0:	212e2004 	addi	r4,r4,-18304
   835d4:	008ee340 	call	8ee34 <printf>
	printf("  offset to DTD                                : %d\n", cea->off_dtd);
   835d8:	e0bfd517 	ldw	r2,-172(fp)
   835dc:	11400517 	ldw	r5,20(r2)
   835e0:	010002b4 	movhi	r4,10
   835e4:	212e2e04 	addi	r4,r4,-18248
   835e8:	008ee340 	call	8ee34 <printf>
	printf("  monitor underscans IT formats                : %s\n", cea->flags.underscan ? "yes" : "no");
   835ec:	e0bfd517 	ldw	r2,-172(fp)
   835f0:	10800117 	ldw	r2,4(r2)
   835f4:	1005003a 	cmpeq	r2,r2,zero
   835f8:	1000041e 	bne	r2,zero,8360c <edid_print_cea+0xbc>
   835fc:	008002b4 	movhi	r2,10
   83600:	10ae3c04 	addi	r2,r2,-18192
   83604:	e0bfff15 	stw	r2,-4(fp)
   83608:	00000306 	br	83618 <edid_print_cea+0xc8>
   8360c:	00c002b4 	movhi	r3,10
   83610:	18ee3d04 	addi	r3,r3,-18188
   83614:	e0ffff15 	stw	r3,-4(fp)
   83618:	010002b4 	movhi	r4,10
   8361c:	212e3e04 	addi	r4,r4,-18184
   83620:	e17fff17 	ldw	r5,-4(fp)
   83624:	008ee340 	call	8ee34 <printf>
	printf("  supports audio                               : %s\n", cea->flags.audio ? "yes" : "no");
   83628:	e0bfd517 	ldw	r2,-172(fp)
   8362c:	10800217 	ldw	r2,8(r2)
   83630:	1005003a 	cmpeq	r2,r2,zero
   83634:	1000041e 	bne	r2,zero,83648 <edid_print_cea+0xf8>
   83638:	010002b4 	movhi	r4,10
   8363c:	212e3c04 	addi	r4,r4,-18192
   83640:	e13ffe15 	stw	r4,-8(fp)
   83644:	00000306 	br	83654 <edid_print_cea+0x104>
   83648:	008002b4 	movhi	r2,10
   8364c:	10ae3d04 	addi	r2,r2,-18188
   83650:	e0bffe15 	stw	r2,-8(fp)
   83654:	010002b4 	movhi	r4,10
   83658:	212e4c04 	addi	r4,r4,-18128
   8365c:	e17ffe17 	ldw	r5,-8(fp)
   83660:	008ee340 	call	8ee34 <printf>
	printf("  supports YCbCr 4:4:4 in addition to RGB      : %s\n", cea->flags.ycbcr444 ? "yes" : "no");
   83664:	e0bfd517 	ldw	r2,-172(fp)
   83668:	10800317 	ldw	r2,12(r2)
   8366c:	1005003a 	cmpeq	r2,r2,zero
   83670:	1000041e 	bne	r2,zero,83684 <edid_print_cea+0x134>
   83674:	00c002b4 	movhi	r3,10
   83678:	18ee3c04 	addi	r3,r3,-18192
   8367c:	e0fffd15 	stw	r3,-12(fp)
   83680:	00000306 	br	83690 <edid_print_cea+0x140>
   83684:	010002b4 	movhi	r4,10
   83688:	212e3d04 	addi	r4,r4,-18188
   8368c:	e13ffd15 	stw	r4,-12(fp)
   83690:	010002b4 	movhi	r4,10
   83694:	212e5a04 	addi	r4,r4,-18072
   83698:	e17ffd17 	ldw	r5,-12(fp)
   8369c:	008ee340 	call	8ee34 <printf>
	printf("  supports YCbCr 4:2:2 in addition to RGB      : %s\n", cea->flags.ycbcr422 ? "yes" : "no");
   836a0:	e0bfd517 	ldw	r2,-172(fp)
   836a4:	10800417 	ldw	r2,16(r2)
   836a8:	1005003a 	cmpeq	r2,r2,zero
   836ac:	1000041e 	bne	r2,zero,836c0 <edid_print_cea+0x170>
   836b0:	008002b4 	movhi	r2,10
   836b4:	10ae3c04 	addi	r2,r2,-18192
   836b8:	e0bffc15 	stw	r2,-16(fp)
   836bc:	00000306 	br	836cc <edid_print_cea+0x17c>
   836c0:	00c002b4 	movhi	r3,10
   836c4:	18ee3d04 	addi	r3,r3,-18188
   836c8:	e0fffc15 	stw	r3,-16(fp)
   836cc:	010002b4 	movhi	r4,10
   836d0:	212e6804 	addi	r4,r4,-18016
   836d4:	e17ffc17 	ldw	r5,-16(fp)
   836d8:	008ee340 	call	8ee34 <printf>

	printf("\n  data block collections\n  ---------------------------------\n");
   836dc:	010002b4 	movhi	r4,10
   836e0:	212e7604 	addi	r4,r4,-17960
   836e4:	008ef700 	call	8ef70 <puts>

	// data block collection
	for (t = 0; t < cea->nr_dbcs; ++t) {
   836e8:	e03fd715 	stw	zero,-164(fp)
   836ec:	00044f06 	br	8482c <edid_print_cea+0x12dc>

		switch (cea->dbc_tags[t]) {
   836f0:	e0ffd717 	ldw	r3,-164(fp)
   836f4:	e0bfd517 	ldw	r2,-172(fp)
   836f8:	1885883a 	add	r2,r3,r2
   836fc:	10800804 	addi	r2,r2,32
   83700:	10800003 	ldbu	r2,0(r2)
   83704:	10803fcc 	andi	r2,r2,255
   83708:	e0bffb15 	stw	r2,-20(fp)
   8370c:	e13ffb17 	ldw	r4,-20(fp)
   83710:	20800228 	cmpgeui	r2,r4,8
   83714:	1004381e 	bne	r2,zero,847f8 <edid_print_cea+0x12a8>
   83718:	e0fffb17 	ldw	r3,-20(fp)
   8371c:	e0fffb17 	ldw	r3,-20(fp)
   83720:	18c5883a 	add	r2,r3,r3
   83724:	1087883a 	add	r3,r2,r2
   83728:	00800234 	movhi	r2,8
   8372c:	108dcf04 	addi	r2,r2,14140
   83730:	1885883a 	add	r2,r3,r2
   83734:	10800017 	ldw	r2,0(r2)
   83738:	1000683a 	jmp	r2
   8373c:	000847f8 	rdprs	zero,zero,8479
   83740:	0008375c 	xori	zero,zero,8413
   83744:	000839d8 	cmpnei	zero,zero,8423
   83748:	00083b64 	muli	zero,zero,8429
   8374c:	000842a8 	cmpgeui	zero,zero,8458
   83750:	00084480 	call	8448 <__alt_mem_onchip_memory2-0x77bb8>
   83754:	000847f8 	rdprs	zero,zero,8479
   83758:	00084494 	movui	zero,8466
		case CEA_DB_AUDIO:
			printf("\n  [%02d] audio data block ...\n", t);
   8375c:	010002b4 	movhi	r4,10
   83760:	212e8604 	addi	r4,r4,-17896
   83764:	e17fd717 	ldw	r5,-164(fp)
   83768:	008ee340 	call	8ee34 <printf>
			printf("       number of SADs (short audio descriptor) : %d\n", cea->db_audio.nr_sad);
   8376c:	e0bfd517 	ldw	r2,-172(fp)
   83770:	11406817 	ldw	r5,416(r2)
   83774:	010002b4 	movhi	r4,10
   83778:	212e8e04 	addi	r4,r4,-17864
   8377c:	008ee340 	call	8ee34 <printf>

			for (i = 0; i < cea->db_audio.nr_sad; ++i) {
   83780:	e03fd815 	stw	zero,-160(fp)
   83784:	00008f06 	br	839c4 <edid_print_cea+0x474>
					"DST",
					"WMA Pro",
					"unknown (15)",
				};

				printf("       %02d) format      : %s\n", i, sad_format[cea->db_audio.sad[i].format]);
   83788:	e0bfd817 	ldw	r2,-160(fp)
   8378c:	e0ffd517 	ldw	r3,-172(fp)
   83790:	10800524 	muli	r2,r2,20
   83794:	10c5883a 	add	r2,r2,r3
   83798:	10806904 	addi	r2,r2,420
   8379c:	10800017 	ldw	r2,0(r2)
   837a0:	00c002b4 	movhi	r3,10
   837a4:	18faa104 	addi	r3,r3,-5500
   837a8:	1085883a 	add	r2,r2,r2
   837ac:	1085883a 	add	r2,r2,r2
   837b0:	10c5883a 	add	r2,r2,r3
   837b4:	11800017 	ldw	r6,0(r2)
   837b8:	010002b4 	movhi	r4,10
   837bc:	212e9c04 	addi	r4,r4,-17808
   837c0:	e17fd817 	ldw	r5,-160(fp)
   837c4:	008ee340 	call	8ee34 <printf>
				printf("           channels    : %d\n", cea->db_audio.sad[i].channels);
   837c8:	e0bfd817 	ldw	r2,-160(fp)
   837cc:	e0ffd517 	ldw	r3,-172(fp)
   837d0:	10800524 	muli	r2,r2,20
   837d4:	10c5883a 	add	r2,r2,r3
   837d8:	10806a04 	addi	r2,r2,424
   837dc:	11400017 	ldw	r5,0(r2)
   837e0:	010002b4 	movhi	r4,10
   837e4:	212ea404 	addi	r4,r4,-17776
   837e8:	008ee340 	call	8ee34 <printf>
				printf("           frequency   : 192K)%d 176.4k)%d 96k)%d 88.2k)%d 48k)%d 44.1k)%d 32k)%d\n",
   837ec:	e0bfd817 	ldw	r2,-160(fp)
   837f0:	e0ffd517 	ldw	r3,-172(fp)
   837f4:	10800524 	muli	r2,r2,20
   837f8:	10c5883a 	add	r2,r2,r3
   837fc:	10806b04 	addi	r2,r2,428
   83800:	10800017 	ldw	r2,0(r2)
   83804:	1080100c 	andi	r2,r2,64
   83808:	100ac03a 	cmpne	r5,r2,zero
   8380c:	e0bfd817 	ldw	r2,-160(fp)
   83810:	e0ffd517 	ldw	r3,-172(fp)
   83814:	10800524 	muli	r2,r2,20
   83818:	10c5883a 	add	r2,r2,r3
   8381c:	10806b04 	addi	r2,r2,428
   83820:	10800017 	ldw	r2,0(r2)
   83824:	1080080c 	andi	r2,r2,32
   83828:	100cc03a 	cmpne	r6,r2,zero
   8382c:	e0bfd817 	ldw	r2,-160(fp)
   83830:	e0ffd517 	ldw	r3,-172(fp)
   83834:	10800524 	muli	r2,r2,20
   83838:	10c5883a 	add	r2,r2,r3
   8383c:	10806b04 	addi	r2,r2,428
   83840:	10800017 	ldw	r2,0(r2)
   83844:	1080040c 	andi	r2,r2,16
   83848:	100ec03a 	cmpne	r7,r2,zero
   8384c:	e0bfd817 	ldw	r2,-160(fp)
   83850:	e0ffd517 	ldw	r3,-172(fp)
   83854:	10800524 	muli	r2,r2,20
   83858:	10c5883a 	add	r2,r2,r3
   8385c:	10806b04 	addi	r2,r2,428
   83860:	10800017 	ldw	r2,0(r2)
   83864:	1080020c 	andi	r2,r2,8
   83868:	1010c03a 	cmpne	r8,r2,zero
   8386c:	e0bfd817 	ldw	r2,-160(fp)
   83870:	e0ffd517 	ldw	r3,-172(fp)
   83874:	10800524 	muli	r2,r2,20
   83878:	10c5883a 	add	r2,r2,r3
   8387c:	10806b04 	addi	r2,r2,428
   83880:	10800017 	ldw	r2,0(r2)
   83884:	1080010c 	andi	r2,r2,4
   83888:	1012c03a 	cmpne	r9,r2,zero
   8388c:	e0bfd817 	ldw	r2,-160(fp)
   83890:	e0ffd517 	ldw	r3,-172(fp)
   83894:	10800524 	muli	r2,r2,20
   83898:	10c5883a 	add	r2,r2,r3
   8389c:	10806b04 	addi	r2,r2,428
   838a0:	10800017 	ldw	r2,0(r2)
   838a4:	1080008c 	andi	r2,r2,2
   838a8:	1008c03a 	cmpne	r4,r2,zero
   838ac:	e0bfd817 	ldw	r2,-160(fp)
   838b0:	e0ffd517 	ldw	r3,-172(fp)
   838b4:	10800524 	muli	r2,r2,20
   838b8:	10c5883a 	add	r2,r2,r3
   838bc:	10806b04 	addi	r2,r2,428
   838c0:	10800017 	ldw	r2,0(r2)
   838c4:	1080004c 	andi	r2,r2,1
   838c8:	da000015 	stw	r8,0(sp)
   838cc:	da400115 	stw	r9,4(sp)
   838d0:	d9000215 	stw	r4,8(sp)
   838d4:	d8800315 	stw	r2,12(sp)
   838d8:	010002b4 	movhi	r4,10
   838dc:	212eac04 	addi	r4,r4,-17744
   838e0:	008ee340 	call	8ee34 <printf>
					cea->db_audio.sad[i].freq & CEA_SAD_SF_88P2K ? 1 : 0,
					cea->db_audio.sad[i].freq & CEA_SAD_SF_48K ? 1 : 0,
					cea->db_audio.sad[i].freq & CEA_SAD_SF_44P1K ? 1 : 0,
					cea->db_audio.sad[i].freq & CEA_SAD_SF_32K ? 1 : 0);

				switch (cea->db_audio.sad[i].format) {
   838e4:	e0bfd817 	ldw	r2,-160(fp)
   838e8:	e0ffd517 	ldw	r3,-172(fp)
   838ec:	10800524 	muli	r2,r2,20
   838f0:	10c5883a 	add	r2,r2,r3
   838f4:	10806904 	addi	r2,r2,420
   838f8:	10800017 	ldw	r2,0(r2)
   838fc:	e0bffa15 	stw	r2,-24(fp)
   83900:	e13ffa17 	ldw	r4,-24(fp)
   83904:	20800060 	cmpeqi	r2,r4,1
   83908:	1000071e 	bne	r2,zero,83928 <edid_print_cea+0x3d8>
   8390c:	e0fffa17 	ldw	r3,-24(fp)
   83910:	18800050 	cmplti	r2,r3,1
   83914:	1000281e 	bne	r2,zero,839b8 <edid_print_cea+0x468>
   83918:	e13ffa17 	ldw	r4,-24(fp)
   8391c:	20800248 	cmpgei	r2,r4,9
   83920:	1000251e 	bne	r2,zero,839b8 <edid_print_cea+0x468>
   83924:	00001b06 	br	83994 <edid_print_cea+0x444>
				case CEA_SAD_FMT_LPCM:
					printf("           resolution  : 24-bit)%d 20-bit)%d 16-bit)%d\n",
   83928:	e0bfd817 	ldw	r2,-160(fp)
   8392c:	e0ffd517 	ldw	r3,-172(fp)
   83930:	10800524 	muli	r2,r2,20
   83934:	10c5883a 	add	r2,r2,r3
   83938:	10806c04 	addi	r2,r2,432
   8393c:	10800017 	ldw	r2,0(r2)
   83940:	1080010c 	andi	r2,r2,4
   83944:	100ac03a 	cmpne	r5,r2,zero
   83948:	e0bfd817 	ldw	r2,-160(fp)
   8394c:	e0ffd517 	ldw	r3,-172(fp)
   83950:	10800524 	muli	r2,r2,20
   83954:	10c5883a 	add	r2,r2,r3
   83958:	10806c04 	addi	r2,r2,432
   8395c:	10800017 	ldw	r2,0(r2)
   83960:	1080008c 	andi	r2,r2,2
   83964:	100cc03a 	cmpne	r6,r2,zero
   83968:	e0bfd817 	ldw	r2,-160(fp)
   8396c:	e0ffd517 	ldw	r3,-172(fp)
   83970:	10800524 	muli	r2,r2,20
   83974:	10c5883a 	add	r2,r2,r3
   83978:	10806c04 	addi	r2,r2,432
   8397c:	10800017 	ldw	r2,0(r2)
   83980:	11c0004c 	andi	r7,r2,1
   83984:	010002b4 	movhi	r4,10
   83988:	212ec104 	addi	r4,r4,-17660
   8398c:	008ee340 	call	8ee34 <printf>
						cea->db_audio.sad[i].resolution & 0x04 ? 1 : 0,
						cea->db_audio.sad[i].resolution & 0x02 ? 1 : 0,
						cea->db_audio.sad[i].resolution & 0x01 ? 1 : 0);
					break;
   83990:	00000906 	br	839b8 <edid_print_cea+0x468>
				case CEA_SAD_FMT_MP3:
				case CEA_SAD_FMT_MPEG2:
				case CEA_SAD_FMT_AAC:
				case CEA_SAD_FMT_DTS:
				case CEA_SAD_FMT_ATRAC:
					printf("           bitrate max : %d (kHz)\n", cea->db_audio.sad[i].bitrate);
   83994:	e0bfd817 	ldw	r2,-160(fp)
   83998:	e0ffd517 	ldw	r3,-172(fp)
   8399c:	10800524 	muli	r2,r2,20
   839a0:	10c5883a 	add	r2,r2,r3
   839a4:	10806d04 	addi	r2,r2,436
   839a8:	11400017 	ldw	r5,0(r2)
   839ac:	010002b4 	movhi	r4,10
   839b0:	212ecf04 	addi	r4,r4,-17604
   839b4:	008ee340 	call	8ee34 <printf>
		switch (cea->dbc_tags[t]) {
		case CEA_DB_AUDIO:
			printf("\n  [%02d] audio data block ...\n", t);
			printf("       number of SADs (short audio descriptor) : %d\n", cea->db_audio.nr_sad);

			for (i = 0; i < cea->db_audio.nr_sad; ++i) {
   839b8:	e0bfd817 	ldw	r2,-160(fp)
   839bc:	10800044 	addi	r2,r2,1
   839c0:	e0bfd815 	stw	r2,-160(fp)
   839c4:	e0bfd517 	ldw	r2,-172(fp)
   839c8:	10c06817 	ldw	r3,416(r2)
   839cc:	e0bfd817 	ldw	r2,-160(fp)
   839d0:	10ff6d16 	blt	r2,r3,83788 <edid_print_cea+0x238>
				//case CEA_SAD_FMT_DST:
				//case CEA_SAD_FMT_WMA_PRO:
				//	break;
				}
			}
			break;
   839d4:	00039206 	br	84820 <edid_print_cea+0x12d0>
				"720x480p       @239.76/240 Hz (16:9)",
				"720(1440)x480i @239.76/240 Hz (4:3)",
				"720(1440)x480i @239.76/240 Hz (16:9)",
			};

			printf("\n  [%02d] video data block ...\n", t);
   839d8:	010002b4 	movhi	r4,10
   839dc:	212ed804 	addi	r4,r4,-17568
   839e0:	e17fd717 	ldw	r5,-164(fp)
   839e4:	008ee340 	call	8ee34 <printf>
			printf("       number of SVDs (short video descriptor) : %d\n", cea->db_video.nr_svd);
   839e8:	e0bfd517 	ldw	r2,-172(fp)
   839ec:	11402717 	ldw	r5,156(r2)
   839f0:	010002b4 	movhi	r4,10
   839f4:	212ee004 	addi	r4,r4,-17536
   839f8:	008ee340 	call	8ee34 <printf>

			for (i = 0; i < cea->db_video.nr_svd; ++i) {
   839fc:	e03fd815 	stw	zero,-160(fp)
   83a00:	00005306 	br	83b50 <edid_print_cea+0x600>
				if (cea->db_video.svd[i].vic < 60)
   83a04:	e0bfd817 	ldw	r2,-160(fp)
   83a08:	e0ffd517 	ldw	r3,-172(fp)
   83a0c:	100490fa 	slli	r2,r2,3
   83a10:	10c5883a 	add	r2,r2,r3
   83a14:	10802904 	addi	r2,r2,164
   83a18:	10800017 	ldw	r2,0(r2)
   83a1c:	10800f08 	cmpgei	r2,r2,60
   83a20:	10002c1e 	bne	r2,zero,83ad4 <edid_print_cea+0x584>
					printf("       %02d) VIC-%02d %s %s\n", i, cea->db_video.svd[i].vic, vic_table[cea->db_video.svd[i].vic], cea->db_video.svd[i].native ? "(native)" : " ");
   83a24:	e0bfd817 	ldw	r2,-160(fp)
   83a28:	e0ffd517 	ldw	r3,-172(fp)
   83a2c:	100490fa 	slli	r2,r2,3
   83a30:	10c5883a 	add	r2,r2,r3
   83a34:	10802904 	addi	r2,r2,164
   83a38:	10800017 	ldw	r2,0(r2)
   83a3c:	e0bff915 	stw	r2,-28(fp)
   83a40:	e0bfd817 	ldw	r2,-160(fp)
   83a44:	e0ffd517 	ldw	r3,-172(fp)
   83a48:	100490fa 	slli	r2,r2,3
   83a4c:	10c5883a 	add	r2,r2,r3
   83a50:	10802904 	addi	r2,r2,164
   83a54:	10800017 	ldw	r2,0(r2)
   83a58:	00c002b4 	movhi	r3,10
   83a5c:	18fa6504 	addi	r3,r3,-5740
   83a60:	1085883a 	add	r2,r2,r2
   83a64:	1085883a 	add	r2,r2,r2
   83a68:	10c5883a 	add	r2,r2,r3
   83a6c:	10800017 	ldw	r2,0(r2)
   83a70:	e0bff815 	stw	r2,-32(fp)
   83a74:	e0bfd817 	ldw	r2,-160(fp)
   83a78:	e0ffd517 	ldw	r3,-172(fp)
   83a7c:	100490fa 	slli	r2,r2,3
   83a80:	10c5883a 	add	r2,r2,r3
   83a84:	10802804 	addi	r2,r2,160
   83a88:	10800017 	ldw	r2,0(r2)
   83a8c:	1005003a 	cmpeq	r2,r2,zero
   83a90:	1000041e 	bne	r2,zero,83aa4 <edid_print_cea+0x554>
   83a94:	008002b4 	movhi	r2,10
   83a98:	10aeee04 	addi	r2,r2,-17480
   83a9c:	e0bff715 	stw	r2,-36(fp)
   83aa0:	00000306 	br	83ab0 <edid_print_cea+0x560>
   83aa4:	00c002b4 	movhi	r3,10
   83aa8:	18eef104 	addi	r3,r3,-17468
   83aac:	e0fff715 	stw	r3,-36(fp)
   83ab0:	e13ff717 	ldw	r4,-36(fp)
   83ab4:	d9000015 	stw	r4,0(sp)
   83ab8:	010002b4 	movhi	r4,10
   83abc:	212ef204 	addi	r4,r4,-17464
   83ac0:	e17fd817 	ldw	r5,-160(fp)
   83ac4:	e1bff917 	ldw	r6,-28(fp)
   83ac8:	e1fff817 	ldw	r7,-32(fp)
   83acc:	008ee340 	call	8ee34 <printf>
   83ad0:	00001c06 	br	83b44 <edid_print_cea+0x5f4>
				else
					printf("       %02d) VIC-%02d unknown %s\n", i, cea->db_video.svd[i].vic, cea->db_video.svd[i].native ? "(native)" : " ");
   83ad4:	e0bfd817 	ldw	r2,-160(fp)
   83ad8:	e0ffd517 	ldw	r3,-172(fp)
   83adc:	100490fa 	slli	r2,r2,3
   83ae0:	10c5883a 	add	r2,r2,r3
   83ae4:	10802904 	addi	r2,r2,164
   83ae8:	10800017 	ldw	r2,0(r2)
   83aec:	e0bff615 	stw	r2,-40(fp)
   83af0:	e0bfd817 	ldw	r2,-160(fp)
   83af4:	e0ffd517 	ldw	r3,-172(fp)
   83af8:	100490fa 	slli	r2,r2,3
   83afc:	10c5883a 	add	r2,r2,r3
   83b00:	10802804 	addi	r2,r2,160
   83b04:	10800017 	ldw	r2,0(r2)
   83b08:	1005003a 	cmpeq	r2,r2,zero
   83b0c:	1000041e 	bne	r2,zero,83b20 <edid_print_cea+0x5d0>
   83b10:	008002b4 	movhi	r2,10
   83b14:	10aeee04 	addi	r2,r2,-17480
   83b18:	e0bff515 	stw	r2,-44(fp)
   83b1c:	00000306 	br	83b2c <edid_print_cea+0x5dc>
   83b20:	00c002b4 	movhi	r3,10
   83b24:	18eef104 	addi	r3,r3,-17468
   83b28:	e0fff515 	stw	r3,-44(fp)
   83b2c:	010002b4 	movhi	r4,10
   83b30:	212efa04 	addi	r4,r4,-17432
   83b34:	e17fd817 	ldw	r5,-160(fp)
   83b38:	e1bff617 	ldw	r6,-40(fp)
   83b3c:	e1fff517 	ldw	r7,-44(fp)
   83b40:	008ee340 	call	8ee34 <printf>
			};

			printf("\n  [%02d] video data block ...\n", t);
			printf("       number of SVDs (short video descriptor) : %d\n", cea->db_video.nr_svd);

			for (i = 0; i < cea->db_video.nr_svd; ++i) {
   83b44:	e0bfd817 	ldw	r2,-160(fp)
   83b48:	10800044 	addi	r2,r2,1
   83b4c:	e0bfd815 	stw	r2,-160(fp)
   83b50:	e0bfd517 	ldw	r2,-172(fp)
   83b54:	10c02717 	ldw	r3,156(r2)
   83b58:	e0bfd817 	ldw	r2,-160(fp)
   83b5c:	10ffa916 	blt	r2,r3,83a04 <edid_print_cea+0x4b4>
				if (cea->db_video.svd[i].vic < 60)
					printf("       %02d) VIC-%02d %s %s\n", i, cea->db_video.svd[i].vic, vic_table[cea->db_video.svd[i].vic], cea->db_video.svd[i].native ? "(native)" : " ");
				else
					printf("       %02d) VIC-%02d unknown %s\n", i, cea->db_video.svd[i].vic, cea->db_video.svd[i].native ? "(native)" : " ");
			}
			break;
   83b60:	00032f06 	br	84820 <edid_print_cea+0x12d0>
		}
		case CEA_DB_VENDOR:
			if (cea->db_vsdb_hdmi.ieee_reg_id != 0x000c03) {
   83b64:	e0bfd517 	ldw	r2,-172(fp)
   83b68:	10809d17 	ldw	r2,628(r2)
   83b6c:	108300e0 	cmpeqi	r2,r2,3075
   83b70:	1000051e 	bne	r2,zero,83b88 <edid_print_cea+0x638>
				printf("\n  [%02d] VSDB vendor specific data block ...\n", t);
   83b74:	010002b4 	movhi	r4,10
   83b78:	212f0304 	addi	r4,r4,-17396
   83b7c:	e17fd717 	ldw	r5,-164(fp)
   83b80:	008ee340 	call	8ee34 <printf>
				break;
   83b84:	00032606 	br	84820 <edid_print_cea+0x12d0>
			}

			printf("\n  [%02d] HDMI VSDB vendor specific data block ...\n", t);
   83b88:	010002b4 	movhi	r4,10
   83b8c:	212f0f04 	addi	r4,r4,-17348
   83b90:	e17fd717 	ldw	r5,-164(fp)
   83b94:	008ee340 	call	8ee34 <printf>
			printf("       source physical address         : %d.%d.%d.%d\n",
   83b98:	e0bfd517 	ldw	r2,-172(fp)
   83b9c:	11409e17 	ldw	r5,632(r2)
   83ba0:	e0bfd517 	ldw	r2,-172(fp)
   83ba4:	11809f17 	ldw	r6,636(r2)
   83ba8:	e0bfd517 	ldw	r2,-172(fp)
   83bac:	11c0a017 	ldw	r7,640(r2)
   83bb0:	e0bfd517 	ldw	r2,-172(fp)
   83bb4:	1080a117 	ldw	r2,644(r2)
   83bb8:	d8800015 	stw	r2,0(sp)
   83bbc:	010002b4 	movhi	r4,10
   83bc0:	212f1c04 	addi	r4,r4,-17296
   83bc4:	008ee340 	call	8ee34 <printf>
				cea->db_vsdb_hdmi.addr_a, cea->db_vsdb_hdmi.addr_b,
				cea->db_vsdb_hdmi.addr_c, cea->db_vsdb_hdmi.addr_d);

			if (cea->db_vsdb_hdmi.ext_len >= 6) {
   83bc8:	e0bfd517 	ldw	r2,-172(fp)
   83bcc:	10809c17 	ldw	r2,624(r2)
   83bd0:	10800190 	cmplti	r2,r2,6
   83bd4:	10005a1e 	bne	r2,zero,83d40 <edid_print_cea+0x7f0>
				printf("       support ACP ISRC1 ISRC2 packets : %s\n", cea->db_vsdb_hdmi.ai ? "yes" : "no");
   83bd8:	e0bfd517 	ldw	r2,-172(fp)
   83bdc:	1080a217 	ldw	r2,648(r2)
   83be0:	1005003a 	cmpeq	r2,r2,zero
   83be4:	1000041e 	bne	r2,zero,83bf8 <edid_print_cea+0x6a8>
   83be8:	010002b4 	movhi	r4,10
   83bec:	212e3c04 	addi	r4,r4,-18192
   83bf0:	e13ff415 	stw	r4,-48(fp)
   83bf4:	00000306 	br	83c04 <edid_print_cea+0x6b4>
   83bf8:	008002b4 	movhi	r2,10
   83bfc:	10ae3d04 	addi	r2,r2,-18188
   83c00:	e0bff415 	stw	r2,-48(fp)
   83c04:	010002b4 	movhi	r4,10
   83c08:	212f2a04 	addi	r4,r4,-17240
   83c0c:	e17ff417 	ldw	r5,-48(fp)
   83c10:	008ee340 	call	8ee34 <printf>
				printf("       support 48 bpp                  : %s\n", cea->db_vsdb_hdmi.bpp48 ? "yes" : "no");
   83c14:	e0bfd517 	ldw	r2,-172(fp)
   83c18:	1080a517 	ldw	r2,660(r2)
   83c1c:	1005003a 	cmpeq	r2,r2,zero
   83c20:	1000041e 	bne	r2,zero,83c34 <edid_print_cea+0x6e4>
   83c24:	00c002b4 	movhi	r3,10
   83c28:	18ee3c04 	addi	r3,r3,-18192
   83c2c:	e0fff315 	stw	r3,-52(fp)
   83c30:	00000306 	br	83c40 <edid_print_cea+0x6f0>
   83c34:	010002b4 	movhi	r4,10
   83c38:	212e3d04 	addi	r4,r4,-18188
   83c3c:	e13ff315 	stw	r4,-52(fp)
   83c40:	010002b4 	movhi	r4,10
   83c44:	212f3604 	addi	r4,r4,-17192
   83c48:	e17ff317 	ldw	r5,-52(fp)
   83c4c:	008ee340 	call	8ee34 <printf>
				printf("       support 36 bpp                  : %s\n", cea->db_vsdb_hdmi.bpp36 ? "yes" : "no");
   83c50:	e0bfd517 	ldw	r2,-172(fp)
   83c54:	1080a417 	ldw	r2,656(r2)
   83c58:	1005003a 	cmpeq	r2,r2,zero
   83c5c:	1000041e 	bne	r2,zero,83c70 <edid_print_cea+0x720>
   83c60:	008002b4 	movhi	r2,10
   83c64:	10ae3c04 	addi	r2,r2,-18192
   83c68:	e0bff215 	stw	r2,-56(fp)
   83c6c:	00000306 	br	83c7c <edid_print_cea+0x72c>
   83c70:	00c002b4 	movhi	r3,10
   83c74:	18ee3d04 	addi	r3,r3,-18188
   83c78:	e0fff215 	stw	r3,-56(fp)
   83c7c:	010002b4 	movhi	r4,10
   83c80:	212f4204 	addi	r4,r4,-17144
   83c84:	e17ff217 	ldw	r5,-56(fp)
   83c88:	008ee340 	call	8ee34 <printf>
				printf("       support 30 bpp                  : %s\n", cea->db_vsdb_hdmi.bpp30 ? "yes" : "no");
   83c8c:	e0bfd517 	ldw	r2,-172(fp)
   83c90:	1080a317 	ldw	r2,652(r2)
   83c94:	1005003a 	cmpeq	r2,r2,zero
   83c98:	1000041e 	bne	r2,zero,83cac <edid_print_cea+0x75c>
   83c9c:	010002b4 	movhi	r4,10
   83ca0:	212e3c04 	addi	r4,r4,-18192
   83ca4:	e13ff115 	stw	r4,-60(fp)
   83ca8:	00000306 	br	83cb8 <edid_print_cea+0x768>
   83cac:	008002b4 	movhi	r2,10
   83cb0:	10ae3d04 	addi	r2,r2,-18188
   83cb4:	e0bff115 	stw	r2,-60(fp)
   83cb8:	010002b4 	movhi	r4,10
   83cbc:	212f4e04 	addi	r4,r4,-17096
   83cc0:	e17ff117 	ldw	r5,-60(fp)
   83cc4:	008ee340 	call	8ee34 <printf>
				printf("       support YCbCr 4:4:4 deep color  : %s\n", cea->db_vsdb_hdmi.ycbcr444 ? "yes" : "no");
   83cc8:	e0bfd517 	ldw	r2,-172(fp)
   83ccc:	1080a617 	ldw	r2,664(r2)
   83cd0:	1005003a 	cmpeq	r2,r2,zero
   83cd4:	1000041e 	bne	r2,zero,83ce8 <edid_print_cea+0x798>
   83cd8:	00c002b4 	movhi	r3,10
   83cdc:	18ee3c04 	addi	r3,r3,-18192
   83ce0:	e0fff015 	stw	r3,-64(fp)
   83ce4:	00000306 	br	83cf4 <edid_print_cea+0x7a4>
   83ce8:	010002b4 	movhi	r4,10
   83cec:	212e3d04 	addi	r4,r4,-18188
   83cf0:	e13ff015 	stw	r4,-64(fp)
   83cf4:	010002b4 	movhi	r4,10
   83cf8:	212f5a04 	addi	r4,r4,-17048
   83cfc:	e17ff017 	ldw	r5,-64(fp)
   83d00:	008ee340 	call	8ee34 <printf>
				printf("       support DVI dual-link           : %s\n", cea->db_vsdb_hdmi.dvi_dual ? "yes" : "no");
   83d04:	e0bfd517 	ldw	r2,-172(fp)
   83d08:	1080a717 	ldw	r2,668(r2)
   83d0c:	1005003a 	cmpeq	r2,r2,zero
   83d10:	1000041e 	bne	r2,zero,83d24 <edid_print_cea+0x7d4>
   83d14:	008002b4 	movhi	r2,10
   83d18:	10ae3c04 	addi	r2,r2,-18192
   83d1c:	e0bfef15 	stw	r2,-68(fp)
   83d20:	00000306 	br	83d30 <edid_print_cea+0x7e0>
   83d24:	00c002b4 	movhi	r3,10
   83d28:	18ee3d04 	addi	r3,r3,-18188
   83d2c:	e0ffef15 	stw	r3,-68(fp)
   83d30:	010002b4 	movhi	r4,10
   83d34:	212f6604 	addi	r4,r4,-17000
   83d38:	e17fef17 	ldw	r5,-68(fp)
   83d3c:	008ee340 	call	8ee34 <printf>
			}

			if (cea->db_vsdb_hdmi.ext_len >= 7) {
   83d40:	e0bfd517 	ldw	r2,-172(fp)
   83d44:	10809c17 	ldw	r2,624(r2)
   83d48:	108001d0 	cmplti	r2,r2,7
   83d4c:	1000051e 	bne	r2,zero,83d64 <edid_print_cea+0x814>
				printf("       max TMDS clock                  : %d (MHz)\n", cea->db_vsdb_hdmi.max_tmds_clk);
   83d50:	e0bfd517 	ldw	r2,-172(fp)
   83d54:	1140ab17 	ldw	r5,684(r2)
   83d58:	010002b4 	movhi	r4,10
   83d5c:	212f7204 	addi	r4,r4,-16952
   83d60:	008ee340 	call	8ee34 <printf>
			}

			if (cea->db_vsdb_hdmi.p_latency != 0) {
   83d64:	e0bfd517 	ldw	r2,-172(fp)
   83d68:	1080a817 	ldw	r2,672(r2)
   83d6c:	1005003a 	cmpeq	r2,r2,zero
   83d70:	10000a1e 	bne	r2,zero,83d9c <edid_print_cea+0x84c>
				printf("       video latency (progressive)     : %d (ms)\n", cea->db_vsdb_hdmi.vid_latency_p);
   83d74:	e0bfd517 	ldw	r2,-172(fp)
   83d78:	1140ac17 	ldw	r5,688(r2)
   83d7c:	010002b4 	movhi	r4,10
   83d80:	212f7f04 	addi	r4,r4,-16900
   83d84:	008ee340 	call	8ee34 <printf>
				printf("       audio latency (progressive)     : %d (ms)\n", cea->db_vsdb_hdmi.aud_latency_p);
   83d88:	e0bfd517 	ldw	r2,-172(fp)
   83d8c:	1140ad17 	ldw	r5,692(r2)
   83d90:	010002b4 	movhi	r4,10
   83d94:	212f8c04 	addi	r4,r4,-16848
   83d98:	008ee340 	call	8ee34 <printf>
			}

			if (cea->db_vsdb_hdmi.i_latency != 0) {
   83d9c:	e0bfd517 	ldw	r2,-172(fp)
   83da0:	1080a917 	ldw	r2,676(r2)
   83da4:	1005003a 	cmpeq	r2,r2,zero
   83da8:	10000a1e 	bne	r2,zero,83dd4 <edid_print_cea+0x884>
				printf("       video latency (interlaced)      : %d (ms)\n", cea->db_vsdb_hdmi.vid_latency_i);
   83dac:	e0bfd517 	ldw	r2,-172(fp)
   83db0:	1140ae17 	ldw	r5,696(r2)
   83db4:	010002b4 	movhi	r4,10
   83db8:	212f9904 	addi	r4,r4,-16796
   83dbc:	008ee340 	call	8ee34 <printf>
				printf("       audio latency (interlaced)      : %d (ms)\n", cea->db_vsdb_hdmi.aud_latency_i);
   83dc0:	e0bfd517 	ldw	r2,-172(fp)
   83dc4:	1140af17 	ldw	r5,700(r2)
   83dc8:	010002b4 	movhi	r4,10
   83dcc:	212fa604 	addi	r4,r4,-16744
   83dd0:	008ee340 	call	8ee34 <printf>
			}

			printf("       HDMI video fields               : %s\n", cea->db_vsdb_hdmi.hdmi_video ? "yes" : "no");
   83dd4:	e0bfd517 	ldw	r2,-172(fp)
   83dd8:	1080aa17 	ldw	r2,680(r2)
   83ddc:	1005003a 	cmpeq	r2,r2,zero
   83de0:	1000041e 	bne	r2,zero,83df4 <edid_print_cea+0x8a4>
   83de4:	010002b4 	movhi	r4,10
   83de8:	212e3c04 	addi	r4,r4,-18192
   83dec:	e13fee15 	stw	r4,-72(fp)
   83df0:	00000306 	br	83e00 <edid_print_cea+0x8b0>
   83df4:	008002b4 	movhi	r2,10
   83df8:	10ae3d04 	addi	r2,r2,-18188
   83dfc:	e0bfee15 	stw	r2,-72(fp)
   83e00:	010002b4 	movhi	r4,10
   83e04:	212fb304 	addi	r4,r4,-16692
   83e08:	e17fee17 	ldw	r5,-72(fp)
   83e0c:	008ee340 	call	8ee34 <printf>
			printf("       HDMI 3D video fields            : %s\n", cea->db_vsdb_hdmi.present_3d ? "yes" : "no");
   83e10:	e0bfd517 	ldw	r2,-172(fp)
   83e14:	1080b017 	ldw	r2,704(r2)
   83e18:	1005003a 	cmpeq	r2,r2,zero
   83e1c:	1000041e 	bne	r2,zero,83e30 <edid_print_cea+0x8e0>
   83e20:	00c002b4 	movhi	r3,10
   83e24:	18ee3c04 	addi	r3,r3,-18192
   83e28:	e0ffed15 	stw	r3,-76(fp)
   83e2c:	00000306 	br	83e3c <edid_print_cea+0x8ec>
   83e30:	010002b4 	movhi	r4,10
   83e34:	212e3d04 	addi	r4,r4,-18188
   83e38:	e13fed15 	stw	r4,-76(fp)
   83e3c:	010002b4 	movhi	r4,10
   83e40:	212fbf04 	addi	r4,r4,-16644
   83e44:	e17fed17 	ldw	r5,-76(fp)
   83e48:	008ee340 	call	8ee34 <printf>

			if (cea->db_vsdb_hdmi.hdmi_video != 0) {
   83e4c:	e0bfd517 	ldw	r2,-172(fp)
   83e50:	1080aa17 	ldw	r2,680(r2)
   83e54:	1005003a 	cmpeq	r2,r2,zero
   83e58:	1002711e 	bne	r2,zero,84820 <edid_print_cea+0x12d0>
				switch (cea->db_vsdb_hdmi.multi_3d) {
   83e5c:	e0bfd517 	ldw	r2,-172(fp)
   83e60:	1080b117 	ldw	r2,708(r2)
   83e64:	e0bfec15 	stw	r2,-80(fp)
   83e68:	e0ffec17 	ldw	r3,-80(fp)
   83e6c:	18800060 	cmpeqi	r2,r3,1
   83e70:	1000121e 	bne	r2,zero,83ebc <edid_print_cea+0x96c>
   83e74:	e13fec17 	ldw	r4,-80(fp)
   83e78:	20800088 	cmpgei	r2,r4,2
   83e7c:	1000041e 	bne	r2,zero,83e90 <edid_print_cea+0x940>
   83e80:	e0ffec17 	ldw	r3,-80(fp)
   83e84:	1805003a 	cmpeq	r2,r3,zero
   83e88:	1000081e 	bne	r2,zero,83eac <edid_print_cea+0x95c>
   83e8c:	00001606 	br	83ee8 <edid_print_cea+0x998>
   83e90:	e13fec17 	ldw	r4,-80(fp)
   83e94:	208000a0 	cmpeqi	r2,r4,2
   83e98:	10000c1e 	bne	r2,zero,83ecc <edid_print_cea+0x97c>
   83e9c:	e0ffec17 	ldw	r3,-80(fp)
   83ea0:	188000e0 	cmpeqi	r2,r3,3
   83ea4:	10000d1e 	bne	r2,zero,83edc <edid_print_cea+0x98c>
   83ea8:	00000f06 	br	83ee8 <edid_print_cea+0x998>
				case 0:
					printf("         3D-Multi_present              : 2b00 (no 3D_Structure_ALL_15..0, no 3D_MASK_15..0)\n");
   83eac:	010002b4 	movhi	r4,10
   83eb0:	212fcb04 	addi	r4,r4,-16596
   83eb4:	008ef700 	call	8ef70 <puts>
					break;
   83eb8:	00000b06 	br	83ee8 <edid_print_cea+0x998>
				case 1:
					printf("         3D-Multi_present              : 2b01 (with 3D_Structure_ALL_15..0, no 3D_MASK_15..0)\n");
   83ebc:	010002b4 	movhi	r4,10
   83ec0:	212fe204 	addi	r4,r4,-16504
   83ec4:	008ef700 	call	8ef70 <puts>
					break;
   83ec8:	00000706 	br	83ee8 <edid_print_cea+0x998>
				case 2:
					printf("         3D-Multi_present              : 2b10 (with 3D_Structure_ALL_15..0, with 3D_MASK_15..0)\n");
   83ecc:	010002b4 	movhi	r4,10
   83ed0:	212ffa04 	addi	r4,r4,-16408
   83ed4:	008ef700 	call	8ef70 <puts>
					break;
   83ed8:	00000306 	br	83ee8 <edid_print_cea+0x998>
				case 3:
					printf("         3D-Multi_present              : 2b11 (no 3D_Structure_ALL_15..0, no 3D_MASK_15..0)\n");
   83edc:	010002b4 	movhi	r4,10
   83ee0:	21301204 	addi	r4,r4,-16312
   83ee4:	008ef700 	call	8ef70 <puts>
					break;
				}

				if ((cea->db_vsdb_hdmi.multi_3d == 1) || (cea->db_vsdb_hdmi.multi_3d == 2)) {
   83ee8:	e0bfd517 	ldw	r2,-172(fp)
   83eec:	1080b117 	ldw	r2,708(r2)
   83ef0:	10800060 	cmpeqi	r2,r2,1
   83ef4:	1000041e 	bne	r2,zero,83f08 <edid_print_cea+0x9b8>
   83ef8:	e0bfd517 	ldw	r2,-172(fp)
   83efc:	1080b117 	ldw	r2,708(r2)
   83f00:	10800098 	cmpnei	r2,r2,2
   83f04:	1000261e 	bne	r2,zero,83fa0 <edid_print_cea+0xa50>
					if (cea->db_vsdb_hdmi.struct_all_3d == 0) {
   83f08:	e0bfd517 	ldw	r2,-172(fp)
   83f0c:	1080b517 	ldw	r2,724(r2)
   83f10:	1004c03a 	cmpne	r2,r2,zero
   83f14:	1000041e 	bne	r2,zero,83f28 <edid_print_cea+0x9d8>
						printf("         3D_Structure_ALL              : none\n");
   83f18:	010002b4 	movhi	r4,10
   83f1c:	21302904 	addi	r4,r4,-16220
   83f20:	008ef700 	call	8ef70 <puts>
   83f24:	00001e06 	br	83fa0 <edid_print_cea+0xa50>
					} else {
						printf("         3D_Structure_ALL              : ");
   83f28:	010002b4 	movhi	r4,10
   83f2c:	21303504 	addi	r4,r4,-16172
   83f30:	008ee340 	call	8ee34 <printf>
						if (cea->db_vsdb_hdmi.struct_all_3d & 0x01)
   83f34:	e0bfd517 	ldw	r2,-172(fp)
   83f38:	1080b517 	ldw	r2,724(r2)
   83f3c:	1080004c 	andi	r2,r2,1
   83f40:	10803fcc 	andi	r2,r2,255
   83f44:	1005003a 	cmpeq	r2,r2,zero
   83f48:	1000031e 	bne	r2,zero,83f58 <edid_print_cea+0xa08>
							printf("frame_packing ");
   83f4c:	010002b4 	movhi	r4,10
   83f50:	21304004 	addi	r4,r4,-16128
   83f54:	008ee340 	call	8ee34 <printf>
						if (cea->db_vsdb_hdmi.struct_all_3d & 0x40)
   83f58:	e0bfd517 	ldw	r2,-172(fp)
   83f5c:	1080b517 	ldw	r2,724(r2)
   83f60:	1080100c 	andi	r2,r2,64
   83f64:	1005003a 	cmpeq	r2,r2,zero
   83f68:	1000031e 	bne	r2,zero,83f78 <edid_print_cea+0xa28>
							printf("top-and-bottom ");
   83f6c:	010002b4 	movhi	r4,10
   83f70:	21304404 	addi	r4,r4,-16112
   83f74:	008ee340 	call	8ee34 <printf>
						if (cea->db_vsdb_hdmi.struct_all_3d & 0x100)
   83f78:	e0bfd517 	ldw	r2,-172(fp)
   83f7c:	1080b517 	ldw	r2,724(r2)
   83f80:	1080400c 	andi	r2,r2,256
   83f84:	1005003a 	cmpeq	r2,r2,zero
   83f88:	1000031e 	bne	r2,zero,83f98 <edid_print_cea+0xa48>
							printf("side-by-side(half h_subsampling)");
   83f8c:	010002b4 	movhi	r4,10
   83f90:	21304804 	addi	r4,r4,-16096
   83f94:	008ee340 	call	8ee34 <printf>
						printf("\n");
   83f98:	01000284 	movi	r4,10
   83f9c:	008eeac0 	call	8eeac <putchar>
					}
				}

				if (cea->db_vsdb_hdmi.multi_3d == 2) {
   83fa0:	e0bfd517 	ldw	r2,-172(fp)
   83fa4:	1080b117 	ldw	r2,708(r2)
   83fa8:	10800098 	cmpnei	r2,r2,2
   83fac:	1000051e 	bne	r2,zero,83fc4 <edid_print_cea+0xa74>
					printf("         3D_MASK                       : 0x%04x\n", cea->db_vsdb_hdmi.mask_3d);
   83fb0:	e0bfd517 	ldw	r2,-172(fp)
   83fb4:	1140b617 	ldw	r5,728(r2)
   83fb8:	010002b4 	movhi	r4,10
   83fbc:	21305104 	addi	r4,r4,-16060
   83fc0:	008ee340 	call	8ee34 <printf>
				}

				switch (cea->db_vsdb_hdmi.image_size) {
   83fc4:	e0bfd517 	ldw	r2,-172(fp)
   83fc8:	1080b217 	ldw	r2,712(r2)
   83fcc:	e0bfeb15 	stw	r2,-84(fp)
   83fd0:	e13feb17 	ldw	r4,-84(fp)
   83fd4:	20800060 	cmpeqi	r2,r4,1
   83fd8:	1000121e 	bne	r2,zero,84024 <edid_print_cea+0xad4>
   83fdc:	e0ffeb17 	ldw	r3,-84(fp)
   83fe0:	18800088 	cmpgei	r2,r3,2
   83fe4:	1000041e 	bne	r2,zero,83ff8 <edid_print_cea+0xaa8>
   83fe8:	e13feb17 	ldw	r4,-84(fp)
   83fec:	2005003a 	cmpeq	r2,r4,zero
   83ff0:	1000081e 	bne	r2,zero,84014 <edid_print_cea+0xac4>
   83ff4:	00001606 	br	84050 <edid_print_cea+0xb00>
   83ff8:	e0ffeb17 	ldw	r3,-84(fp)
   83ffc:	188000a0 	cmpeqi	r2,r3,2
   84000:	10000c1e 	bne	r2,zero,84034 <edid_print_cea+0xae4>
   84004:	e13feb17 	ldw	r4,-84(fp)
   84008:	208000e0 	cmpeqi	r2,r4,3
   8400c:	10000d1e 	bne	r2,zero,84044 <edid_print_cea+0xaf4>
   84010:	00000f06 	br	84050 <edid_print_cea+0xb00>
				case 0:
					printf("         image size extra properties   : none\n");
   84014:	010002b4 	movhi	r4,10
   84018:	21305e04 	addi	r4,r4,-16008
   8401c:	008ef700 	call	8ef70 <puts>
					break;
   84020:	00000b06 	br	84050 <edid_print_cea+0xb00>
				case 1:
					printf("         image size extra properties   : exact aspect ratio only\n");
   84024:	010002b4 	movhi	r4,10
   84028:	21306a04 	addi	r4,r4,-15960
   8402c:	008ef700 	call	8ef70 <puts>
					break;
   84030:	00000706 	br	84050 <edid_print_cea+0xb00>
				case 2:
					printf("         image size extra properties   : size correct (1cm nearest rounded)\n");
   84034:	010002b4 	movhi	r4,10
   84038:	21307b04 	addi	r4,r4,-15892
   8403c:	008ef700 	call	8ef70 <puts>
					break;
   84040:	00000306 	br	84050 <edid_print_cea+0xb00>
				case 3:
					printf("         image size extra properties   : size correct (div by 5cm nearest rounded)\n");
   84044:	010002b4 	movhi	r4,10
   84048:	21308e04 	addi	r4,r4,-15816
   8404c:	008ef700 	call	8ef70 <puts>
					break;
				}

				for (i = 0; i < cea->db_vsdb_hdmi.nr_vic_3d; ++ i) {
   84050:	e03fd815 	stw	zero,-160(fp)
   84054:	00008f06 	br	84294 <edid_print_cea+0xd44>

					printf("         [%02d] 2D_VIC_Order)%02d ", i, cea->db_vsdb_hdmi.vic_3d[i].vic_2d);
   84058:	e0bfd817 	ldw	r2,-160(fp)
   8405c:	e0ffd517 	ldw	r3,-172(fp)
   84060:	10800324 	muli	r2,r2,12
   84064:	10c5883a 	add	r2,r2,r3
   84068:	1080b804 	addi	r2,r2,736
   8406c:	11800017 	ldw	r6,0(r2)
   84070:	010002b4 	movhi	r4,10
   84074:	2130a304 	addi	r4,r4,-15732
   84078:	e17fd817 	ldw	r5,-160(fp)
   8407c:	008ee340 	call	8ee34 <printf>

					switch (cea->db_vsdb_hdmi.vic_3d[i].struct_3d) {
   84080:	e0bfd817 	ldw	r2,-160(fp)
   84084:	e0ffd517 	ldw	r3,-172(fp)
   84088:	10800324 	muli	r2,r2,12
   8408c:	10c5883a 	add	r2,r2,r3
   84090:	1080b904 	addi	r2,r2,740
   84094:	10800017 	ldw	r2,0(r2)
   84098:	e0bfea15 	stw	r2,-88(fp)
   8409c:	e0ffea17 	ldw	r3,-88(fp)
   840a0:	18800268 	cmpgeui	r2,r3,9
   840a4:	1000321e 	bne	r2,zero,84170 <edid_print_cea+0xc20>
   840a8:	e13fea17 	ldw	r4,-88(fp)
   840ac:	e13fea17 	ldw	r4,-88(fp)
   840b0:	2105883a 	add	r2,r4,r4
   840b4:	1087883a 	add	r3,r2,r2
   840b8:	00800234 	movhi	r2,8
   840bc:	10903304 	addi	r2,r2,16588
   840c0:	1885883a 	add	r2,r3,r2
   840c4:	10800017 	ldw	r2,0(r2)
   840c8:	1000683a 	jmp	r2
   840cc:	000840f0 	cmpltui	zero,zero,8451
   840d0:	00084100 	call	8410 <__alt_mem_onchip_memory2-0x77bf0>
   840d4:	00084110 	cmplti	zero,zero,8452
   840d8:	00084120 	cmpeqi	zero,zero,8452
   840dc:	00084130 	cmpltui	zero,zero,8452
   840e0:	00084140 	call	8414 <__alt_mem_onchip_memory2-0x77bec>
   840e4:	00084150 	cmplti	zero,zero,8453
   840e8:	00084170 	cmpltui	zero,zero,8453
   840ec:	00084160 	cmpeqi	zero,zero,8453
					case 0:
						printf("3D_Structure)frame_packing ");
   840f0:	010002b4 	movhi	r4,10
   840f4:	2130ac04 	addi	r4,r4,-15696
   840f8:	008ee340 	call	8ee34 <printf>
						break;
   840fc:	00001f06 	br	8417c <edid_print_cea+0xc2c>
					case 1:
						printf("3D_Structure)field_alternative ");
   84100:	010002b4 	movhi	r4,10
   84104:	2130b304 	addi	r4,r4,-15668
   84108:	008ee340 	call	8ee34 <printf>
						break;
   8410c:	00001b06 	br	8417c <edid_print_cea+0xc2c>
					case 2:
						printf("3D_Structure)line_alternative ");
   84110:	010002b4 	movhi	r4,10
   84114:	2130bb04 	addi	r4,r4,-15636
   84118:	008ee340 	call	8ee34 <printf>
						break;
   8411c:	00001706 	br	8417c <edid_print_cea+0xc2c>
					case 3:
						printf("3D_Structure)side-by-side(full) ");
   84120:	010002b4 	movhi	r4,10
   84124:	2130c304 	addi	r4,r4,-15604
   84128:	008ee340 	call	8ee34 <printf>
						break;
   8412c:	00001306 	br	8417c <edid_print_cea+0xc2c>
					case 4:
						printf("3D_Structure)L+depth ");
   84130:	010002b4 	movhi	r4,10
   84134:	2130cc04 	addi	r4,r4,-15568
   84138:	008ee340 	call	8ee34 <printf>
						break;
   8413c:	00000f06 	br	8417c <edid_print_cea+0xc2c>
					case 5:
						printf("3D_Structure)L+depth+graphics+graphics_depth ");
   84140:	010002b4 	movhi	r4,10
   84144:	2130d204 	addi	r4,r4,-15544
   84148:	008ee340 	call	8ee34 <printf>
						break;
   8414c:	00000b06 	br	8417c <edid_print_cea+0xc2c>
					case 6:
						printf("3D_Structure)top-and-bottom ");
   84150:	010002b4 	movhi	r4,10
   84154:	2130de04 	addi	r4,r4,-15496
   84158:	008ee340 	call	8ee34 <printf>
						break;
   8415c:	00000706 	br	8417c <edid_print_cea+0xc2c>
					case 8:
						printf("3D_Structure)side-by-side(half) ");
   84160:	010002b4 	movhi	r4,10
   84164:	2130e604 	addi	r4,r4,-15464
   84168:	008ee340 	call	8ee34 <printf>
						break;
   8416c:	00000306 	br	8417c <edid_print_cea+0xc2c>
					default:
						printf("3D_Structure)unknown ");
   84170:	010002b4 	movhi	r4,10
   84174:	2130ef04 	addi	r4,r4,-15428
   84178:	008ee340 	call	8ee34 <printf>
						break;
					}

					if (cea->db_vsdb_hdmi.vic_3d[i].struct_3d == 0x08) {
   8417c:	e0bfd817 	ldw	r2,-160(fp)
   84180:	e0ffd517 	ldw	r3,-172(fp)
   84184:	10800324 	muli	r2,r2,12
   84188:	10c5883a 	add	r2,r2,r3
   8418c:	1080b904 	addi	r2,r2,740
   84190:	10800017 	ldw	r2,0(r2)
   84194:	10800218 	cmpnei	r2,r2,8
   84198:	1000391e 	bne	r2,zero,84280 <edid_print_cea+0xd30>
						switch (cea->db_vsdb_hdmi.vic_3d[i].detail_3d) {
   8419c:	e0bfd817 	ldw	r2,-160(fp)
   841a0:	e0ffd517 	ldw	r3,-172(fp)
   841a4:	10800324 	muli	r2,r2,12
   841a8:	10c5883a 	add	r2,r2,r3
   841ac:	1080ba04 	addi	r2,r2,744
   841b0:	10800017 	ldw	r2,0(r2)
   841b4:	e0bfe915 	stw	r2,-92(fp)
   841b8:	e0ffe917 	ldw	r3,-92(fp)
   841bc:	188002e8 	cmpgeui	r2,r3,11
   841c0:	10002f1e 	bne	r2,zero,84280 <edid_print_cea+0xd30>
   841c4:	e13fe917 	ldw	r4,-92(fp)
   841c8:	e13fe917 	ldw	r4,-92(fp)
   841cc:	2105883a 	add	r2,r4,r4
   841d0:	1087883a 	add	r3,r2,r2
   841d4:	00800234 	movhi	r2,8
   841d8:	10907a04 	addi	r2,r2,16872
   841dc:	1885883a 	add	r2,r3,r2
   841e0:	10800017 	ldw	r2,0(r2)
   841e4:	1000683a 	jmp	r2
   841e8:	00084214 	movui	zero,8456
   841ec:	00084224 	muli	zero,zero,8456
   841f0:	00084280 	call	8428 <__alt_mem_onchip_memory2-0x77bd8>
   841f4:	00084280 	call	8428 <__alt_mem_onchip_memory2-0x77bd8>
   841f8:	00084280 	call	8428 <__alt_mem_onchip_memory2-0x77bd8>
   841fc:	00084280 	call	8428 <__alt_mem_onchip_memory2-0x77bd8>
   84200:	00084234 	movhi	zero,8456
   84204:	00084244 	movi	zero,8457
   84208:	00084254 	movui	zero,8457
   8420c:	00084264 	muli	zero,zero,8457
   84210:	00084274 	movhi	zero,8457
						case 0:
							printf("3D_Detail)h_sub_sampling+four_quincunx_matrix");
   84214:	010002b4 	movhi	r4,10
   84218:	2130f504 	addi	r4,r4,-15404
   8421c:	008ee340 	call	8ee34 <printf>
							break;
   84220:	00001706 	br	84280 <edid_print_cea+0xd30>
						case 1:
							printf("3D_Detail)h_sub_sampling");
   84224:	010002b4 	movhi	r4,10
   84228:	21310104 	addi	r4,r4,-15356
   8422c:	008ee340 	call	8ee34 <printf>
							break;
   84230:	00001306 	br	84280 <edid_print_cea+0xd30>
						case 6:
							printf("3D_Detail)all_4_sub_sampling_position");
   84234:	010002b4 	movhi	r4,10
   84238:	21310804 	addi	r4,r4,-15328
   8423c:	008ee340 	call	8ee34 <printf>
							break;
   84240:	00000f06 	br	84280 <edid_print_cea+0xd30>
						case 7:
							printf("3D_Detail)odd_left+odd_right");
   84244:	010002b4 	movhi	r4,10
   84248:	21311204 	addi	r4,r4,-15288
   8424c:	008ee340 	call	8ee34 <printf>
							break;
   84250:	00000b06 	br	84280 <edid_print_cea+0xd30>
						case 8:
							printf("3D_Detail)odd_left+even_right");
   84254:	010002b4 	movhi	r4,10
   84258:	21311a04 	addi	r4,r4,-15256
   8425c:	008ee340 	call	8ee34 <printf>
							break;
   84260:	00000706 	br	84280 <edid_print_cea+0xd30>
						case 9:
							printf("3D_Detail)even_left+odd_right");
   84264:	010002b4 	movhi	r4,10
   84268:	21312204 	addi	r4,r4,-15224
   8426c:	008ee340 	call	8ee34 <printf>
							break;
   84270:	00000306 	br	84280 <edid_print_cea+0xd30>
						case 10:
							printf("3D_Detail)even_left+even_right");
   84274:	010002b4 	movhi	r4,10
   84278:	21312a04 	addi	r4,r4,-15192
   8427c:	008ee340 	call	8ee34 <printf>
							break;
						}
					}

					printf("\n");
   84280:	01000284 	movi	r4,10
   84284:	008eeac0 	call	8eeac <putchar>
				case 3:
					printf("         image size extra properties   : size correct (div by 5cm nearest rounded)\n");
					break;
				}

				for (i = 0; i < cea->db_vsdb_hdmi.nr_vic_3d; ++ i) {
   84288:	e0bfd817 	ldw	r2,-160(fp)
   8428c:	10800044 	addi	r2,r2,1
   84290:	e0bfd815 	stw	r2,-160(fp)
   84294:	e0bfd517 	ldw	r2,-172(fp)
   84298:	10c0b717 	ldw	r3,732(r2)
   8429c:	e0bfd817 	ldw	r2,-160(fp)
   842a0:	10ff6d16 	blt	r2,r3,84058 <edid_print_cea+0xb08>

					printf("\n");
				}
			}

			break;
   842a4:	00015e06 	br	84820 <edid_print_cea+0x12d0>

		case CEA_DB_SPEAKER:
			printf("\n  [%02d] speaker allocation data block ...\n", t);
   842a8:	010002b4 	movhi	r4,10
   842ac:	21313204 	addi	r4,r4,-15160
   842b0:	e17fd717 	ldw	r5,-164(fp)
   842b4:	008ee340 	call	8ee34 <printf>

			printf("       RLC/RRC : %s\n", cea->db_speaker.designation & CEA_SPK_RLC_RRC ? "yes" : "no");
   842b8:	e0bfd517 	ldw	r2,-172(fp)
   842bc:	10809b17 	ldw	r2,620(r2)
   842c0:	1080100c 	andi	r2,r2,64
   842c4:	1005003a 	cmpeq	r2,r2,zero
   842c8:	1000041e 	bne	r2,zero,842dc <edid_print_cea+0xd8c>
   842cc:	008002b4 	movhi	r2,10
   842d0:	10ae3c04 	addi	r2,r2,-18192
   842d4:	e0bfe815 	stw	r2,-96(fp)
   842d8:	00000306 	br	842e8 <edid_print_cea+0xd98>
   842dc:	00c002b4 	movhi	r3,10
   842e0:	18ee3d04 	addi	r3,r3,-18188
   842e4:	e0ffe815 	stw	r3,-96(fp)
   842e8:	010002b4 	movhi	r4,10
   842ec:	21313e04 	addi	r4,r4,-15112
   842f0:	e17fe817 	ldw	r5,-96(fp)
   842f4:	008ee340 	call	8ee34 <printf>
			printf("       FLC/FRC : %s\n", cea->db_speaker.designation & CEA_SPK_FLC_FRC ? "yes" : "no");
   842f8:	e0bfd517 	ldw	r2,-172(fp)
   842fc:	10809b17 	ldw	r2,620(r2)
   84300:	1080080c 	andi	r2,r2,32
   84304:	1005003a 	cmpeq	r2,r2,zero
   84308:	1000041e 	bne	r2,zero,8431c <edid_print_cea+0xdcc>
   8430c:	010002b4 	movhi	r4,10
   84310:	212e3c04 	addi	r4,r4,-18192
   84314:	e13fe715 	stw	r4,-100(fp)
   84318:	00000306 	br	84328 <edid_print_cea+0xdd8>
   8431c:	008002b4 	movhi	r2,10
   84320:	10ae3d04 	addi	r2,r2,-18188
   84324:	e0bfe715 	stw	r2,-100(fp)
   84328:	010002b4 	movhi	r4,10
   8432c:	21314404 	addi	r4,r4,-15088
   84330:	e17fe717 	ldw	r5,-100(fp)
   84334:	008ee340 	call	8ee34 <printf>
			printf("       RC      : %s\n", cea->db_speaker.designation & CEA_SPK_RC ? "yes" : "no");
   84338:	e0bfd517 	ldw	r2,-172(fp)
   8433c:	10809b17 	ldw	r2,620(r2)
   84340:	1080040c 	andi	r2,r2,16
   84344:	1005003a 	cmpeq	r2,r2,zero
   84348:	1000041e 	bne	r2,zero,8435c <edid_print_cea+0xe0c>
   8434c:	00c002b4 	movhi	r3,10
   84350:	18ee3c04 	addi	r3,r3,-18192
   84354:	e0ffe615 	stw	r3,-104(fp)
   84358:	00000306 	br	84368 <edid_print_cea+0xe18>
   8435c:	010002b4 	movhi	r4,10
   84360:	212e3d04 	addi	r4,r4,-18188
   84364:	e13fe615 	stw	r4,-104(fp)
   84368:	010002b4 	movhi	r4,10
   8436c:	21314a04 	addi	r4,r4,-15064
   84370:	e17fe617 	ldw	r5,-104(fp)
   84374:	008ee340 	call	8ee34 <printf>
			printf("       RL/RR   : %s\n", cea->db_speaker.designation & CEA_SPK_RL_RR ? "yes" : "no");
   84378:	e0bfd517 	ldw	r2,-172(fp)
   8437c:	10809b17 	ldw	r2,620(r2)
   84380:	1080020c 	andi	r2,r2,8
   84384:	1005003a 	cmpeq	r2,r2,zero
   84388:	1000041e 	bne	r2,zero,8439c <edid_print_cea+0xe4c>
   8438c:	008002b4 	movhi	r2,10
   84390:	10ae3c04 	addi	r2,r2,-18192
   84394:	e0bfe515 	stw	r2,-108(fp)
   84398:	00000306 	br	843a8 <edid_print_cea+0xe58>
   8439c:	00c002b4 	movhi	r3,10
   843a0:	18ee3d04 	addi	r3,r3,-18188
   843a4:	e0ffe515 	stw	r3,-108(fp)
   843a8:	010002b4 	movhi	r4,10
   843ac:	21315004 	addi	r4,r4,-15040
   843b0:	e17fe517 	ldw	r5,-108(fp)
   843b4:	008ee340 	call	8ee34 <printf>
			printf("       FC      : %s\n", cea->db_speaker.designation & CEA_SPK_FC ? "yes" : "no");
   843b8:	e0bfd517 	ldw	r2,-172(fp)
   843bc:	10809b17 	ldw	r2,620(r2)
   843c0:	1080010c 	andi	r2,r2,4
   843c4:	1005003a 	cmpeq	r2,r2,zero
   843c8:	1000041e 	bne	r2,zero,843dc <edid_print_cea+0xe8c>
   843cc:	010002b4 	movhi	r4,10
   843d0:	212e3c04 	addi	r4,r4,-18192
   843d4:	e13fe415 	stw	r4,-112(fp)
   843d8:	00000306 	br	843e8 <edid_print_cea+0xe98>
   843dc:	008002b4 	movhi	r2,10
   843e0:	10ae3d04 	addi	r2,r2,-18188
   843e4:	e0bfe415 	stw	r2,-112(fp)
   843e8:	010002b4 	movhi	r4,10
   843ec:	21315604 	addi	r4,r4,-15016
   843f0:	e17fe417 	ldw	r5,-112(fp)
   843f4:	008ee340 	call	8ee34 <printf>
			printf("       LFE     : %s\n", cea->db_speaker.designation & CEA_SPK_LFE ? "yes" : "no");
   843f8:	e0bfd517 	ldw	r2,-172(fp)
   843fc:	10809b17 	ldw	r2,620(r2)
   84400:	1080008c 	andi	r2,r2,2
   84404:	1005003a 	cmpeq	r2,r2,zero
   84408:	1000041e 	bne	r2,zero,8441c <edid_print_cea+0xecc>
   8440c:	00c002b4 	movhi	r3,10
   84410:	18ee3c04 	addi	r3,r3,-18192
   84414:	e0ffe315 	stw	r3,-116(fp)
   84418:	00000306 	br	84428 <edid_print_cea+0xed8>
   8441c:	010002b4 	movhi	r4,10
   84420:	212e3d04 	addi	r4,r4,-18188
   84424:	e13fe315 	stw	r4,-116(fp)
   84428:	010002b4 	movhi	r4,10
   8442c:	21315c04 	addi	r4,r4,-14992
   84430:	e17fe317 	ldw	r5,-116(fp)
   84434:	008ee340 	call	8ee34 <printf>
			printf("       FL/FR   : %s\n", cea->db_speaker.designation & CEA_SPK_FL_FR ? "yes" : "no");
   84438:	e0bfd517 	ldw	r2,-172(fp)
   8443c:	10809b17 	ldw	r2,620(r2)
   84440:	1080004c 	andi	r2,r2,1
   84444:	10803fcc 	andi	r2,r2,255
   84448:	1005003a 	cmpeq	r2,r2,zero
   8444c:	1000041e 	bne	r2,zero,84460 <edid_print_cea+0xf10>
   84450:	008002b4 	movhi	r2,10
   84454:	10ae3c04 	addi	r2,r2,-18192
   84458:	e0bfe215 	stw	r2,-120(fp)
   8445c:	00000306 	br	8446c <edid_print_cea+0xf1c>
   84460:	00c002b4 	movhi	r3,10
   84464:	18ee3d04 	addi	r3,r3,-18188
   84468:	e0ffe215 	stw	r3,-120(fp)
   8446c:	010002b4 	movhi	r4,10
   84470:	21316204 	addi	r4,r4,-14968
   84474:	e17fe217 	ldw	r5,-120(fp)
   84478:	008ee340 	call	8ee34 <printf>

			break;
   8447c:	0000e806 	br	84820 <edid_print_cea+0x12d0>

		case CEA_DB_DTC:
			printf("\n  [%02d] VESA DTC data block ... (todo)\n", t);
   84480:	010002b4 	movhi	r4,10
   84484:	21316804 	addi	r4,r4,-14944
   84488:	e17fd717 	ldw	r5,-164(fp)
   8448c:	008ee340 	call	8ee34 <printf>
			break;
   84490:	0000e306 	br	84820 <edid_print_cea+0x12d0>

		case CEA_DB_EXTENDED:
			switch (cea->dbe_tags[t]) {
   84494:	e0ffd717 	ldw	r3,-164(fp)
   84498:	e0bfd517 	ldw	r2,-172(fp)
   8449c:	1885883a 	add	r2,r3,r2
   844a0:	10801704 	addi	r2,r2,92
   844a4:	10800083 	ldbu	r2,2(r2)
   844a8:	10803fcc 	andi	r2,r2,255
   844ac:	e0bfe115 	stw	r2,-124(fp)
   844b0:	e13fe117 	ldw	r4,-124(fp)
   844b4:	208004e8 	cmpgeui	r2,r4,19
   844b8:	1000d91e 	bne	r2,zero,84820 <edid_print_cea+0x12d0>
   844bc:	e0ffe117 	ldw	r3,-124(fp)
   844c0:	e0ffe117 	ldw	r3,-124(fp)
   844c4:	18c5883a 	add	r2,r3,r3
   844c8:	1087883a 	add	r3,r2,r2
   844cc:	00800234 	movhi	r2,8
   844d0:	10913804 	addi	r2,r2,17632
   844d4:	1885883a 	add	r2,r3,r2
   844d8:	10800017 	ldw	r2,0(r2)
   844dc:	1000683a 	jmp	r2
   844e0:	0008452c 	andhi	zero,zero,8468
   844e4:	00084720 	cmpeqi	zero,zero,8476
   844e8:	00084734 	movhi	zero,8476
   844ec:	00084748 	cmpgei	zero,zero,8477
   844f0:	0008475c 	xori	zero,zero,8477
   844f4:	00084770 	cmpltui	zero,zero,8477
   844f8:	00084820 	cmpeqi	zero,zero,8480
   844fc:	00084820 	cmpeqi	zero,zero,8480
   84500:	00084820 	cmpeqi	zero,zero,8480
   84504:	00084820 	cmpeqi	zero,zero,8480
   84508:	00084820 	cmpeqi	zero,zero,8480
   8450c:	00084820 	cmpeqi	zero,zero,8480
   84510:	00084820 	cmpeqi	zero,zero,8480
   84514:	00084820 	cmpeqi	zero,zero,8480
   84518:	00084820 	cmpeqi	zero,zero,8480
   8451c:	00084820 	cmpeqi	zero,zero,8480
   84520:	000847bc 	xorhi	zero,zero,8478
   84524:	000847d0 	cmplti	zero,zero,8479
   84528:	000847e4 	muli	zero,zero,8479
			case CEA_DBE_VIDEO_CAP:
				printf("\n  [%02d] video capability data block (ext) ...\n", t);
   8452c:	010002b4 	movhi	r4,10
   84530:	21317304 	addi	r4,r4,-14900
   84534:	e17fd717 	ldw	r5,-164(fp)
   84538:	008ee340 	call	8ee34 <printf>

				printf("       quantization range selectable : %s\n", cea->db_vcdb.quant_range_sel ? "yes" : "no");
   8453c:	e0bfd517 	ldw	r2,-172(fp)
   84540:	1080ea17 	ldw	r2,936(r2)
   84544:	1005003a 	cmpeq	r2,r2,zero
   84548:	1000041e 	bne	r2,zero,8455c <edid_print_cea+0x100c>
   8454c:	010002b4 	movhi	r4,10
   84550:	212e3c04 	addi	r4,r4,-18192
   84554:	e13fe015 	stw	r4,-128(fp)
   84558:	00000306 	br	84568 <edid_print_cea+0x1018>
   8455c:	008002b4 	movhi	r2,10
   84560:	10ae3d04 	addi	r2,r2,-18188
   84564:	e0bfe015 	stw	r2,-128(fp)
   84568:	010002b4 	movhi	r4,10
   8456c:	21318004 	addi	r4,r4,-14848
   84570:	e17fe017 	ldw	r5,-128(fp)
   84574:	008ee340 	call	8ee34 <printf>

				switch (cea->db_vcdb.pt_scan_behavior) {
   84578:	e0bfd517 	ldw	r2,-172(fp)
   8457c:	1080eb17 	ldw	r2,940(r2)
   84580:	e0bfdf15 	stw	r2,-132(fp)
   84584:	e0ffdf17 	ldw	r3,-132(fp)
   84588:	18800060 	cmpeqi	r2,r3,1
   8458c:	1000121e 	bne	r2,zero,845d8 <edid_print_cea+0x1088>
   84590:	e13fdf17 	ldw	r4,-132(fp)
   84594:	20800088 	cmpgei	r2,r4,2
   84598:	1000041e 	bne	r2,zero,845ac <edid_print_cea+0x105c>
   8459c:	e0ffdf17 	ldw	r3,-132(fp)
   845a0:	1805003a 	cmpeq	r2,r3,zero
   845a4:	1000081e 	bne	r2,zero,845c8 <edid_print_cea+0x1078>
   845a8:	00001606 	br	84604 <edid_print_cea+0x10b4>
   845ac:	e13fdf17 	ldw	r4,-132(fp)
   845b0:	208000a0 	cmpeqi	r2,r4,2
   845b4:	10000c1e 	bne	r2,zero,845e8 <edid_print_cea+0x1098>
   845b8:	e0ffdf17 	ldw	r3,-132(fp)
   845bc:	188000e0 	cmpeqi	r2,r3,3
   845c0:	10000d1e 	bne	r2,zero,845f8 <edid_print_cea+0x10a8>
   845c4:	00000f06 	br	84604 <edid_print_cea+0x10b4>
				case 0:
					printf("       PT scan behavior              : none\n");
   845c8:	010002b4 	movhi	r4,10
   845cc:	21318b04 	addi	r4,r4,-14804
   845d0:	008ef700 	call	8ef70 <puts>
					break;
   845d4:	00000b06 	br	84604 <edid_print_cea+0x10b4>
				case 1:
					printf("       PT scan behavior              : overscanned always\n");
   845d8:	010002b4 	movhi	r4,10
   845dc:	21319604 	addi	r4,r4,-14760
   845e0:	008ef700 	call	8ef70 <puts>
					break;
   845e4:	00000706 	br	84604 <edid_print_cea+0x10b4>
				case 2:
					printf("       PT scan behavior              : underscanned always\n");
   845e8:	010002b4 	movhi	r4,10
   845ec:	2131a504 	addi	r4,r4,-14700
   845f0:	008ef700 	call	8ef70 <puts>
					break;
   845f4:	00000306 	br	84604 <edid_print_cea+0x10b4>
				case 3:
					printf("       PT scan behavior              : supports both over/under-scan\n");
   845f8:	010002b4 	movhi	r4,10
   845fc:	2131b404 	addi	r4,r4,-14640
   84600:	008ef700 	call	8ef70 <puts>
					break;
				}

				switch (cea->db_vcdb.it_scan_behavior) {
   84604:	e0bfd517 	ldw	r2,-172(fp)
   84608:	1080ec17 	ldw	r2,944(r2)
   8460c:	e0bfde15 	stw	r2,-136(fp)
   84610:	e13fde17 	ldw	r4,-136(fp)
   84614:	20800060 	cmpeqi	r2,r4,1
   84618:	1000121e 	bne	r2,zero,84664 <edid_print_cea+0x1114>
   8461c:	e0ffde17 	ldw	r3,-136(fp)
   84620:	18800088 	cmpgei	r2,r3,2
   84624:	1000041e 	bne	r2,zero,84638 <edid_print_cea+0x10e8>
   84628:	e13fde17 	ldw	r4,-136(fp)
   8462c:	2005003a 	cmpeq	r2,r4,zero
   84630:	1000081e 	bne	r2,zero,84654 <edid_print_cea+0x1104>
   84634:	00001606 	br	84690 <edid_print_cea+0x1140>
   84638:	e0ffde17 	ldw	r3,-136(fp)
   8463c:	188000a0 	cmpeqi	r2,r3,2
   84640:	10000c1e 	bne	r2,zero,84674 <edid_print_cea+0x1124>
   84644:	e13fde17 	ldw	r4,-136(fp)
   84648:	208000e0 	cmpeqi	r2,r4,3
   8464c:	10000d1e 	bne	r2,zero,84684 <edid_print_cea+0x1134>
   84650:	00000f06 	br	84690 <edid_print_cea+0x1140>
				case 0:
					printf("       IT scan behavior              : none\n");
   84654:	010002b4 	movhi	r4,10
   84658:	2131c604 	addi	r4,r4,-14568
   8465c:	008ef700 	call	8ef70 <puts>
					break;
   84660:	00000b06 	br	84690 <edid_print_cea+0x1140>
				case 1:
					printf("       IT scan behavior              : overscanned always\n");
   84664:	010002b4 	movhi	r4,10
   84668:	2131d104 	addi	r4,r4,-14524
   8466c:	008ef700 	call	8ef70 <puts>
					break;
   84670:	00000706 	br	84690 <edid_print_cea+0x1140>
				case 2:
					printf("       IT scan behavior              : underscanned always\n");
   84674:	010002b4 	movhi	r4,10
   84678:	2131e004 	addi	r4,r4,-14464
   8467c:	008ef700 	call	8ef70 <puts>
					break;
   84680:	00000306 	br	84690 <edid_print_cea+0x1140>
				case 3:
					printf("       IT scan behavior              : supports both over/under-scan\n");
   84684:	010002b4 	movhi	r4,10
   84688:	2131ef04 	addi	r4,r4,-14404
   8468c:	008ef700 	call	8ef70 <puts>
					break;
				}

				switch (cea->db_vcdb.ce_scan_behavior) {
   84690:	e0bfd517 	ldw	r2,-172(fp)
   84694:	1080ed17 	ldw	r2,948(r2)
   84698:	e0bfdd15 	stw	r2,-140(fp)
   8469c:	e0ffdd17 	ldw	r3,-140(fp)
   846a0:	18800060 	cmpeqi	r2,r3,1
   846a4:	1000121e 	bne	r2,zero,846f0 <edid_print_cea+0x11a0>
   846a8:	e13fdd17 	ldw	r4,-140(fp)
   846ac:	20800088 	cmpgei	r2,r4,2
   846b0:	1000041e 	bne	r2,zero,846c4 <edid_print_cea+0x1174>
   846b4:	e0ffdd17 	ldw	r3,-140(fp)
   846b8:	1805003a 	cmpeq	r2,r3,zero
   846bc:	1000081e 	bne	r2,zero,846e0 <edid_print_cea+0x1190>
   846c0:	00005706 	br	84820 <edid_print_cea+0x12d0>
   846c4:	e13fdd17 	ldw	r4,-140(fp)
   846c8:	208000a0 	cmpeqi	r2,r4,2
   846cc:	10000c1e 	bne	r2,zero,84700 <edid_print_cea+0x11b0>
   846d0:	e0ffdd17 	ldw	r3,-140(fp)
   846d4:	188000e0 	cmpeqi	r2,r3,3
   846d8:	10000d1e 	bne	r2,zero,84710 <edid_print_cea+0x11c0>
   846dc:	00005006 	br	84820 <edid_print_cea+0x12d0>
				case 0:
					printf("       CE scan behavior              : none\n");
   846e0:	010002b4 	movhi	r4,10
   846e4:	21320104 	addi	r4,r4,-14332
   846e8:	008ef700 	call	8ef70 <puts>
					break;
   846ec:	00004c06 	br	84820 <edid_print_cea+0x12d0>
				case 1:
					printf("       CE scan behavior              : overscanned always\n");
   846f0:	010002b4 	movhi	r4,10
   846f4:	21320c04 	addi	r4,r4,-14288
   846f8:	008ef700 	call	8ef70 <puts>
					break;
   846fc:	00004806 	br	84820 <edid_print_cea+0x12d0>
				case 2:
					printf("       CE scan behavior              : underscanned always\n");
   84700:	010002b4 	movhi	r4,10
   84704:	21321b04 	addi	r4,r4,-14228
   84708:	008ef700 	call	8ef70 <puts>
					break;
   8470c:	00004406 	br	84820 <edid_print_cea+0x12d0>
				case 3:
					printf("       CE scan behavior              : supports both over/under-scan\n");
   84710:	010002b4 	movhi	r4,10
   84714:	21322a04 	addi	r4,r4,-14168
   84718:	008ef700 	call	8ef70 <puts>
					break;
				}
				break;
   8471c:	00004006 	br	84820 <edid_print_cea+0x12d0>
			case CEA_DBE_VIDEO_VENDOR:
				printf("\n  [%02d] vendor-specific video data block (ext) ... (todo)\n", t);
   84720:	010002b4 	movhi	r4,10
   84724:	21323c04 	addi	r4,r4,-14096
   84728:	e17fd717 	ldw	r5,-164(fp)
   8472c:	008ee340 	call	8ee34 <printf>
				break;
   84730:	00003b06 	br	84820 <edid_print_cea+0x12d0>
			case CEA_DBE_VIDEO_DDI:
				printf("\n  [%02d] VESA video display device information data block (ext) ... (todo)\n", t);
   84734:	010002b4 	movhi	r4,10
   84738:	21324c04 	addi	r4,r4,-14032
   8473c:	e17fd717 	ldw	r5,-164(fp)
